
bomb:     file format elf32-i386


Disassembly of section .init:

00002000 <_init>:
    2000:	f3 0f 1e fb          	endbr32 
    2004:	53                   	push   %ebx
    2005:	83 ec 08             	sub    $0x8,%esp
    2008:	e8 53 02 00 00       	call   2260 <__x86.get_pc_thunk.bx>
    200d:	81 c3 5b 4f 00 00    	add    $0x4f5b,%ebx
    2013:	8b 83 8c 00 00 00    	mov    0x8c(%ebx),%eax
    2019:	85 c0                	test   %eax,%eax
    201b:	74 02                	je     201f <_init+0x1f>
    201d:	ff d0                	call   *%eax
    201f:	83 c4 08             	add    $0x8,%esp
    2022:	5b                   	pop    %ebx
    2023:	c3                   	ret    

Disassembly of section .plt:

00002030 <strcmp@plt-0x10>:
    2030:	ff b3 04 00 00 00    	push   0x4(%ebx)
    2036:	ff a3 08 00 00 00    	jmp    *0x8(%ebx)
    203c:	00 00                	add    %al,(%eax)
	...

00002040 <strcmp@plt>:
    2040:	ff a3 0c 00 00 00    	jmp    *0xc(%ebx)
    2046:	68 00 00 00 00       	push   $0x0
    204b:	e9 e0 ff ff ff       	jmp    2030 <_init+0x30>

00002050 <__libc_start_main@plt>:
    2050:	ff a3 10 00 00 00    	jmp    *0x10(%ebx)
    2056:	68 08 00 00 00       	push   $0x8
    205b:	e9 d0 ff ff ff       	jmp    2030 <_init+0x30>

00002060 <read@plt>:
    2060:	ff a3 14 00 00 00    	jmp    *0x14(%ebx)
    2066:	68 10 00 00 00       	push   $0x10
    206b:	e9 c0 ff ff ff       	jmp    2030 <_init+0x30>

00002070 <fflush@plt>:
    2070:	ff a3 18 00 00 00    	jmp    *0x18(%ebx)
    2076:	68 18 00 00 00       	push   $0x18
    207b:	e9 b0 ff ff ff       	jmp    2030 <_init+0x30>

00002080 <fgets@plt>:
    2080:	ff a3 1c 00 00 00    	jmp    *0x1c(%ebx)
    2086:	68 20 00 00 00       	push   $0x20
    208b:	e9 a0 ff ff ff       	jmp    2030 <_init+0x30>

00002090 <signal@plt>:
    2090:	ff a3 20 00 00 00    	jmp    *0x20(%ebx)
    2096:	68 28 00 00 00       	push   $0x28
    209b:	e9 90 ff ff ff       	jmp    2030 <_init+0x30>

000020a0 <sleep@plt>:
    20a0:	ff a3 24 00 00 00    	jmp    *0x24(%ebx)
    20a6:	68 30 00 00 00       	push   $0x30
    20ab:	e9 80 ff ff ff       	jmp    2030 <_init+0x30>

000020b0 <alarm@plt>:
    20b0:	ff a3 28 00 00 00    	jmp    *0x28(%ebx)
    20b6:	68 38 00 00 00       	push   $0x38
    20bb:	e9 70 ff ff ff       	jmp    2030 <_init+0x30>

000020c0 <strcpy@plt>:
    20c0:	ff a3 2c 00 00 00    	jmp    *0x2c(%ebx)
    20c6:	68 40 00 00 00       	push   $0x40
    20cb:	e9 60 ff ff ff       	jmp    2030 <_init+0x30>

000020d0 <gethostname@plt>:
    20d0:	ff a3 30 00 00 00    	jmp    *0x30(%ebx)
    20d6:	68 48 00 00 00       	push   $0x48
    20db:	e9 50 ff ff ff       	jmp    2030 <_init+0x30>

000020e0 <getenv@plt>:
    20e0:	ff a3 34 00 00 00    	jmp    *0x34(%ebx)
    20e6:	68 50 00 00 00       	push   $0x50
    20eb:	e9 40 ff ff ff       	jmp    2030 <_init+0x30>

000020f0 <malloc@plt>:
    20f0:	ff a3 38 00 00 00    	jmp    *0x38(%ebx)
    20f6:	68 58 00 00 00       	push   $0x58
    20fb:	e9 30 ff ff ff       	jmp    2030 <_init+0x30>

00002100 <puts@plt>:
    2100:	ff a3 3c 00 00 00    	jmp    *0x3c(%ebx)
    2106:	68 60 00 00 00       	push   $0x60
    210b:	e9 20 ff ff ff       	jmp    2030 <_init+0x30>

00002110 <__memmove_chk@plt>:
    2110:	ff a3 40 00 00 00    	jmp    *0x40(%ebx)
    2116:	68 68 00 00 00       	push   $0x68
    211b:	e9 10 ff ff ff       	jmp    2030 <_init+0x30>

00002120 <exit@plt>:
    2120:	ff a3 44 00 00 00    	jmp    *0x44(%ebx)
    2126:	68 70 00 00 00       	push   $0x70
    212b:	e9 00 ff ff ff       	jmp    2030 <_init+0x30>

00002130 <strlen@plt>:
    2130:	ff a3 48 00 00 00    	jmp    *0x48(%ebx)
    2136:	68 78 00 00 00       	push   $0x78
    213b:	e9 f0 fe ff ff       	jmp    2030 <_init+0x30>

00002140 <write@plt>:
    2140:	ff a3 4c 00 00 00    	jmp    *0x4c(%ebx)
    2146:	68 80 00 00 00       	push   $0x80
    214b:	e9 e0 fe ff ff       	jmp    2030 <_init+0x30>

00002150 <strcasecmp@plt>:
    2150:	ff a3 50 00 00 00    	jmp    *0x50(%ebx)
    2156:	68 88 00 00 00       	push   $0x88
    215b:	e9 d0 fe ff ff       	jmp    2030 <_init+0x30>

00002160 <__isoc99_sscanf@plt>:
    2160:	ff a3 54 00 00 00    	jmp    *0x54(%ebx)
    2166:	68 90 00 00 00       	push   $0x90
    216b:	e9 c0 fe ff ff       	jmp    2030 <_init+0x30>

00002170 <fopen@plt>:
    2170:	ff a3 58 00 00 00    	jmp    *0x58(%ebx)
    2176:	68 98 00 00 00       	push   $0x98
    217b:	e9 b0 fe ff ff       	jmp    2030 <_init+0x30>

00002180 <__errno_location@plt>:
    2180:	ff a3 5c 00 00 00    	jmp    *0x5c(%ebx)
    2186:	68 a0 00 00 00       	push   $0xa0
    218b:	e9 a0 fe ff ff       	jmp    2030 <_init+0x30>

00002190 <__printf_chk@plt>:
    2190:	ff a3 60 00 00 00    	jmp    *0x60(%ebx)
    2196:	68 a8 00 00 00       	push   $0xa8
    219b:	e9 90 fe ff ff       	jmp    2030 <_init+0x30>

000021a0 <socket@plt>:
    21a0:	ff a3 64 00 00 00    	jmp    *0x64(%ebx)
    21a6:	68 b0 00 00 00       	push   $0xb0
    21ab:	e9 80 fe ff ff       	jmp    2030 <_init+0x30>

000021b0 <__fprintf_chk@plt>:
    21b0:	ff a3 68 00 00 00    	jmp    *0x68(%ebx)
    21b6:	68 b8 00 00 00       	push   $0xb8
    21bb:	e9 70 fe ff ff       	jmp    2030 <_init+0x30>

000021c0 <gethostbyname@plt>:
    21c0:	ff a3 6c 00 00 00    	jmp    *0x6c(%ebx)
    21c6:	68 c0 00 00 00       	push   $0xc0
    21cb:	e9 60 fe ff ff       	jmp    2030 <_init+0x30>

000021d0 <strtol@plt>:
    21d0:	ff a3 70 00 00 00    	jmp    *0x70(%ebx)
    21d6:	68 c8 00 00 00       	push   $0xc8
    21db:	e9 50 fe ff ff       	jmp    2030 <_init+0x30>

000021e0 <connect@plt>:
    21e0:	ff a3 74 00 00 00    	jmp    *0x74(%ebx)
    21e6:	68 d0 00 00 00       	push   $0xd0
    21eb:	e9 40 fe ff ff       	jmp    2030 <_init+0x30>

000021f0 <close@plt>:
    21f0:	ff a3 78 00 00 00    	jmp    *0x78(%ebx)
    21f6:	68 d8 00 00 00       	push   $0xd8
    21fb:	e9 30 fe ff ff       	jmp    2030 <_init+0x30>

00002200 <__ctype_b_loc@plt>:
    2200:	ff a3 7c 00 00 00    	jmp    *0x7c(%ebx)
    2206:	68 e0 00 00 00       	push   $0xe0
    220b:	e9 20 fe ff ff       	jmp    2030 <_init+0x30>

00002210 <__sprintf_chk@plt>:
    2210:	ff a3 80 00 00 00    	jmp    *0x80(%ebx)
    2216:	68 e8 00 00 00       	push   $0xe8
    221b:	e9 10 fe ff ff       	jmp    2030 <_init+0x30>

Disassembly of section .plt.got:

00002220 <__cxa_finalize@plt>:
    2220:	ff a3 88 00 00 00    	jmp    *0x88(%ebx)
    2226:	66 90                	xchg   %ax,%ax

Disassembly of section .text:

00002230 <_start>:
    2230:	f3 0f 1e fb          	endbr32 
    2234:	31 ed                	xor    %ebp,%ebp
    2236:	5e                   	pop    %esi
    2237:	89 e1                	mov    %esp,%ecx
    2239:	83 e4 f0             	and    $0xfffffff0,%esp
    223c:	50                   	push   %eax
    223d:	54                   	push   %esp
    223e:	52                   	push   %edx
    223f:	e8 18 00 00 00       	call   225c <_start+0x2c>
    2244:	81 c3 24 4d 00 00    	add    $0x4d24,%ebx
    224a:	6a 00                	push   $0x0
    224c:	6a 00                	push   $0x0
    224e:	51                   	push   %ecx
    224f:	56                   	push   %esi
    2250:	ff b3 90 00 00 00    	push   0x90(%ebx)
    2256:	e8 f5 fd ff ff       	call   2050 <__libc_start_main@plt>
    225b:	f4                   	hlt    
    225c:	8b 1c 24             	mov    (%esp),%ebx
    225f:	c3                   	ret    

00002260 <__x86.get_pc_thunk.bx>:
    2260:	8b 1c 24             	mov    (%esp),%ebx
    2263:	c3                   	ret    
    2264:	66 90                	xchg   %ax,%ax
    2266:	66 90                	xchg   %ax,%ax
    2268:	66 90                	xchg   %ax,%ax
    226a:	66 90                	xchg   %ax,%ax
    226c:	66 90                	xchg   %ax,%ax
    226e:	66 90                	xchg   %ax,%ax

00002270 <deregister_tm_clones>:
    2270:	e8 e4 00 00 00       	call   2359 <__x86.get_pc_thunk.dx>
    2275:	81 c2 f3 4c 00 00    	add    $0x4cf3,%edx
    227b:	8d 8a d8 07 00 00    	lea    0x7d8(%edx),%ecx
    2281:	8d 82 d8 07 00 00    	lea    0x7d8(%edx),%eax
    2287:	39 c8                	cmp    %ecx,%eax
    2289:	74 1d                	je     22a8 <deregister_tm_clones+0x38>
    228b:	8b 82 84 00 00 00    	mov    0x84(%edx),%eax
    2291:	85 c0                	test   %eax,%eax
    2293:	74 13                	je     22a8 <deregister_tm_clones+0x38>
    2295:	55                   	push   %ebp
    2296:	89 e5                	mov    %esp,%ebp
    2298:	83 ec 14             	sub    $0x14,%esp
    229b:	51                   	push   %ecx
    229c:	ff d0                	call   *%eax
    229e:	83 c4 10             	add    $0x10,%esp
    22a1:	c9                   	leave  
    22a2:	c3                   	ret    
    22a3:	8d 74 26 00          	lea    0x0(%esi,%eiz,1),%esi
    22a7:	90                   	nop
    22a8:	c3                   	ret    
    22a9:	8d b4 26 00 00 00 00 	lea    0x0(%esi,%eiz,1),%esi

000022b0 <register_tm_clones>:
    22b0:	e8 a4 00 00 00       	call   2359 <__x86.get_pc_thunk.dx>
    22b5:	81 c2 b3 4c 00 00    	add    $0x4cb3,%edx
    22bb:	55                   	push   %ebp
    22bc:	89 e5                	mov    %esp,%ebp
    22be:	53                   	push   %ebx
    22bf:	8d 8a d8 07 00 00    	lea    0x7d8(%edx),%ecx
    22c5:	8d 82 d8 07 00 00    	lea    0x7d8(%edx),%eax
    22cb:	83 ec 04             	sub    $0x4,%esp
    22ce:	29 c8                	sub    %ecx,%eax
    22d0:	89 c3                	mov    %eax,%ebx
    22d2:	c1 e8 1f             	shr    $0x1f,%eax
    22d5:	c1 fb 02             	sar    $0x2,%ebx
    22d8:	01 d8                	add    %ebx,%eax
    22da:	d1 f8                	sar    %eax
    22dc:	74 14                	je     22f2 <register_tm_clones+0x42>
    22de:	8b 92 94 00 00 00    	mov    0x94(%edx),%edx
    22e4:	85 d2                	test   %edx,%edx
    22e6:	74 0a                	je     22f2 <register_tm_clones+0x42>
    22e8:	83 ec 08             	sub    $0x8,%esp
    22eb:	50                   	push   %eax
    22ec:	51                   	push   %ecx
    22ed:	ff d2                	call   *%edx
    22ef:	83 c4 10             	add    $0x10,%esp
    22f2:	8b 5d fc             	mov    -0x4(%ebp),%ebx
    22f5:	c9                   	leave  
    22f6:	c3                   	ret    
    22f7:	8d b4 26 00 00 00 00 	lea    0x0(%esi,%eiz,1),%esi
    22fe:	66 90                	xchg   %ax,%ax

00002300 <__do_global_dtors_aux>:
    2300:	f3 0f 1e fb          	endbr32 
    2304:	55                   	push   %ebp
    2305:	89 e5                	mov    %esp,%ebp
    2307:	53                   	push   %ebx
    2308:	e8 53 ff ff ff       	call   2260 <__x86.get_pc_thunk.bx>
    230d:	81 c3 5b 4c 00 00    	add    $0x4c5b,%ebx
    2313:	83 ec 04             	sub    $0x4,%esp
    2316:	80 bb 00 08 00 00 00 	cmpb   $0x0,0x800(%ebx)
    231d:	75 27                	jne    2346 <__do_global_dtors_aux+0x46>
    231f:	8b 83 88 00 00 00    	mov    0x88(%ebx),%eax
    2325:	85 c0                	test   %eax,%eax
    2327:	74 11                	je     233a <__do_global_dtors_aux+0x3a>
    2329:	83 ec 0c             	sub    $0xc,%esp
    232c:	ff b3 9c 00 00 00    	push   0x9c(%ebx)
    2332:	e8 e9 fe ff ff       	call   2220 <__cxa_finalize@plt>
    2337:	83 c4 10             	add    $0x10,%esp
    233a:	e8 31 ff ff ff       	call   2270 <deregister_tm_clones>
    233f:	c6 83 00 08 00 00 01 	movb   $0x1,0x800(%ebx)
    2346:	8b 5d fc             	mov    -0x4(%ebp),%ebx
    2349:	c9                   	leave  
    234a:	c3                   	ret    
    234b:	8d 74 26 00          	lea    0x0(%esi,%eiz,1),%esi
    234f:	90                   	nop

00002350 <frame_dummy>:
    2350:	f3 0f 1e fb          	endbr32 
    2354:	e9 57 ff ff ff       	jmp    22b0 <register_tm_clones>

00002359 <__x86.get_pc_thunk.dx>:
    2359:	8b 14 24             	mov    (%esp),%edx
    235c:	c3                   	ret    

0000235d <main>:
    235d:	8d 4c 24 04          	lea    0x4(%esp),%ecx
    2361:	83 e4 f0             	and    $0xfffffff0,%esp
    2364:	ff 71 fc             	push   -0x4(%ecx)
    2367:	55                   	push   %ebp
    2368:	89 e5                	mov    %esp,%ebp
    236a:	53                   	push   %ebx
    236b:	51                   	push   %ecx
    236c:	8b 01                	mov    (%ecx),%eax
    236e:	8b 59 04             	mov    0x4(%ecx),%ebx
    2371:	83 f8 01             	cmp    $0x1,%eax
    2374:	0f 84 5b 01 00 00    	je     24d5 <main+0x178>
    237a:	83 f8 02             	cmp    $0x2,%eax
    237d:	0f 85 7e 01 00 00    	jne    2501 <main+0x1a4>
    2383:	83 ec 08             	sub    $0x8,%esp
    2386:	68 08 40 00 00       	push   $0x4008
    238b:	ff 73 04             	push   0x4(%ebx)
    238e:	e8 fc ff ff ff       	call   238f <main+0x32>
    2393:	a3 6c 77 00 00       	mov    %eax,0x776c
    2398:	83 c4 10             	add    $0x10,%esp
    239b:	85 c0                	test   %eax,%eax
    239d:	0f 84 41 01 00 00    	je     24e4 <main+0x187>
    23a3:	e8 eb 06 00 00       	call   2a93 <initialize_bomb>
    23a8:	83 ec 0c             	sub    $0xc,%esp
    23ab:	68 98 40 00 00       	push   $0x4098
    23b0:	e8 fc ff ff ff       	call   23b1 <main+0x54>
    23b5:	c7 04 24 d4 40 00 00 	movl   $0x40d4,(%esp)
    23bc:	e8 fc ff ff ff       	call   23bd <main+0x60>
    23c1:	e8 37 09 00 00       	call   2cfd <read_line>
    23c6:	89 04 24             	mov    %eax,(%esp)
    23c9:	e8 50 01 00 00       	call   251e <phase_1>
    23ce:	e8 1e 0a 00 00       	call   2df1 <phase_defused>
    23d3:	c7 04 24 00 41 00 00 	movl   $0x4100,(%esp)
    23da:	e8 fc ff ff ff       	call   23db <main+0x7e>
    23df:	e8 19 09 00 00       	call   2cfd <read_line>
    23e4:	89 04 24             	mov    %eax,(%esp)
    23e7:	e8 74 01 00 00       	call   2560 <phase_2>
    23ec:	e8 00 0a 00 00       	call   2df1 <phase_defused>
    23f1:	c7 04 24 41 40 00 00 	movl   $0x4041,(%esp)
    23f8:	e8 fc ff ff ff       	call   23f9 <main+0x9c>
    23fd:	e8 fb 08 00 00       	call   2cfd <read_line>
    2402:	89 04 24             	mov    %eax,(%esp)
    2405:	e8 79 01 00 00       	call   2583 <phase_3>
    240a:	e8 e2 09 00 00       	call   2df1 <phase_defused>
    240f:	c7 04 24 5f 40 00 00 	movl   $0x405f,(%esp)
    2416:	e8 fc ff ff ff       	call   2417 <main+0xba>
    241b:	e8 dd 08 00 00       	call   2cfd <read_line>
    2420:	89 04 24             	mov    %eax,(%esp)
    2423:	e8 ec 01 00 00       	call   2614 <phase_4>
    2428:	e8 c4 09 00 00       	call   2df1 <phase_defused>
    242d:	c7 04 24 2c 41 00 00 	movl   $0x412c,(%esp)
    2434:	e8 fc ff ff ff       	call   2435 <main+0xd8>
    2439:	e8 bf 08 00 00       	call   2cfd <read_line>
    243e:	89 04 24             	mov    %eax,(%esp)
    2441:	e8 63 02 00 00       	call   26a9 <phase_5>
    2446:	e8 a6 09 00 00       	call   2df1 <phase_defused>
    244b:	c7 04 24 70 40 00 00 	movl   $0x4070,(%esp)
    2452:	e8 fc ff ff ff       	call   2453 <main+0xf6>
    2457:	e8 a1 08 00 00       	call   2cfd <read_line>
    245c:	89 04 24             	mov    %eax,(%esp)
    245f:	e8 dc 02 00 00       	call   2740 <phase_6>
    2464:	e8 88 09 00 00       	call   2df1 <phase_defused>
    2469:	c7 04 24 50 41 00 00 	movl   $0x4150,(%esp)
    2470:	e8 fc ff ff ff       	call   2471 <main+0x114>
    2475:	e8 83 08 00 00       	call   2cfd <read_line>
    247a:	89 04 24             	mov    %eax,(%esp)
    247d:	e8 14 03 00 00       	call   2796 <phase_7>
    2482:	e8 6a 09 00 00       	call   2df1 <phase_defused>
    2487:	c7 04 24 70 41 00 00 	movl   $0x4170,(%esp)
    248e:	e8 fc ff ff ff       	call   248f <main+0x132>
    2493:	e8 65 08 00 00       	call   2cfd <read_line>
    2498:	89 04 24             	mov    %eax,(%esp)
    249b:	e8 67 03 00 00       	call   2807 <phase_8>
    24a0:	e8 4c 09 00 00       	call   2df1 <phase_defused>
    24a5:	c7 04 24 8e 40 00 00 	movl   $0x408e,(%esp)
    24ac:	e8 fc ff ff ff       	call   24ad <main+0x150>
    24b1:	e8 47 08 00 00       	call   2cfd <read_line>
    24b6:	89 04 24             	mov    %eax,(%esp)
    24b9:	e8 99 04 00 00       	call   2957 <phase_9>
    24be:	e8 2e 09 00 00       	call   2df1 <phase_defused>
    24c3:	83 c4 10             	add    $0x10,%esp
    24c6:	b8 00 00 00 00       	mov    $0x0,%eax
    24cb:	8d 65 f8             	lea    -0x8(%ebp),%esp
    24ce:	59                   	pop    %ecx
    24cf:	5b                   	pop    %ebx
    24d0:	5d                   	pop    %ebp
    24d1:	8d 61 fc             	lea    -0x4(%ecx),%esp
    24d4:	c3                   	ret    
    24d5:	a1 00 00 00 00       	mov    0x0,%eax
    24da:	a3 6c 77 00 00       	mov    %eax,0x776c
    24df:	e9 bf fe ff ff       	jmp    23a3 <main+0x46>
    24e4:	ff 73 04             	push   0x4(%ebx)
    24e7:	ff 33                	push   (%ebx)
    24e9:	68 0a 40 00 00       	push   $0x400a
    24ee:	6a 01                	push   $0x1
    24f0:	e8 fc ff ff ff       	call   24f1 <main+0x194>
    24f5:	c7 04 24 08 00 00 00 	movl   $0x8,(%esp)
    24fc:	e8 fc ff ff ff       	call   24fd <main+0x1a0>
    2501:	83 ec 04             	sub    $0x4,%esp
    2504:	ff 33                	push   (%ebx)
    2506:	68 27 40 00 00       	push   $0x4027
    250b:	6a 01                	push   $0x1
    250d:	e8 fc ff ff ff       	call   250e <main+0x1b1>
    2512:	c7 04 24 08 00 00 00 	movl   $0x8,(%esp)
    2519:	e8 fc ff ff ff       	call   251a <main+0x1bd>

0000251e <phase_1>:
    251e:	83 ec 20             	sub    $0x20,%esp
    2521:	c7 44 24 10 00 00 00 	movl   $0x0,0x10(%esp)
    2528:	00 
    2529:	8d 44 24 10          	lea    0x10(%esp),%eax
    252d:	50                   	push   %eax
    252e:	68 40 44 00 00       	push   $0x4440
    2533:	ff 74 24 2c          	push   0x2c(%esp)
    2537:	e8 fc ff ff ff       	call   2538 <phase_1+0x1a>
    253c:	83 c4 10             	add    $0x10,%esp
    253f:	83 f8 01             	cmp    $0x1,%eax
    2542:	75 0e                	jne    2552 <phase_1+0x34>
    2544:	81 7c 24 0c c2 00 00 	cmpl   $0xc2,0xc(%esp)
    254b:	00 
    254c:	75 0b                	jne    2559 <phase_1+0x3b>
    254e:	83 c4 1c             	add    $0x1c,%esp
    2551:	c3                   	ret    
    2552:	e8 2c 07 00 00       	call   2c83 <explode_bomb>
    2557:	eb eb                	jmp    2544 <phase_1+0x26>
    2559:	e8 25 07 00 00       	call   2c83 <explode_bomb>
    255e:	eb ee                	jmp    254e <phase_1+0x30>

00002560 <phase_2>:
    2560:	83 ec 14             	sub    $0x14,%esp
    2563:	68 90 41 00 00       	push   $0x4190
    2568:	ff 74 24 1c          	push   0x1c(%esp)
    256c:	e8 ca 04 00 00       	call   2a3b <strings_not_equal>
    2571:	83 c4 10             	add    $0x10,%esp
    2574:	85 c0                	test   %eax,%eax
    2576:	75 04                	jne    257c <phase_2+0x1c>
    2578:	83 c4 0c             	add    $0xc,%esp
    257b:	c3                   	ret    
    257c:	e8 02 07 00 00       	call   2c83 <explode_bomb>
    2581:	eb f5                	jmp    2578 <phase_2+0x18>

00002583 <phase_3>:
    2583:	83 ec 18             	sub    $0x18,%esp
    2586:	68 b0 41 00 00       	push   $0x41b0
    258b:	e8 8d 04 00 00       	call   2a1d <string_length>
    2590:	83 c0 01             	add    $0x1,%eax
    2593:	89 04 24             	mov    %eax,(%esp)
    2596:	e8 fc ff ff ff       	call   2597 <phase_3+0x14>
    259b:	c7 00 44 6f 20 79    	movl   $0x79206f44,(%eax)
    25a1:	c7 40 04 6f 75 20 72 	movl   $0x7220756f,0x4(%eax)
    25a8:	c7 40 08 65 6d 65 6d 	movl   $0x6d656d65,0x8(%eax)
    25af:	c7 40 0c 62 65 72 20 	movl   $0x20726562,0xc(%eax)
    25b6:	c7 40 10 74 68 65 20 	movl   $0x20656874,0x10(%eax)
    25bd:	c7 40 14 74 77 65 6e 	movl   $0x6e657774,0x14(%eax)
    25c4:	c7 40 18 74 79 2d 66 	movl   $0x662d7974,0x18(%eax)
    25cb:	c7 40 1c 69 72 73 74 	movl   $0x74737269,0x1c(%eax)
    25d2:	c7 40 20 20 6f 66 20 	movl   $0x20666f20,0x20(%eax)
    25d9:	c7 40 24 53 65 70 74 	movl   $0x74706553,0x24(%eax)
    25e0:	c7 40 28 65 6d 62 65 	movl   $0x65626d65,0x28(%eax)
    25e7:	66 c7 40 2c 72 3f    	movw   $0x3f72,0x2c(%eax)
    25ed:	c6 40 2e 00          	movb   $0x0,0x2e(%eax)
    25f1:	c6 40 09 6e          	movb   $0x6e,0x9(%eax)
    25f5:	83 c4 08             	add    $0x8,%esp
    25f8:	50                   	push   %eax
    25f9:	ff 74 24 1c          	push   0x1c(%esp)
    25fd:	e8 39 04 00 00       	call   2a3b <strings_not_equal>
    2602:	83 c4 10             	add    $0x10,%esp
    2605:	85 c0                	test   %eax,%eax
    2607:	75 04                	jne    260d <phase_3+0x8a>
    2609:	83 c4 0c             	add    $0xc,%esp
    260c:	c3                   	ret    
    260d:	e8 71 06 00 00       	call   2c83 <explode_bomb>
    2612:	eb f5                	jmp    2609 <phase_3+0x86>

00002614 <phase_4>:
    2614:	55                   	push   %ebp
    2615:	57                   	push   %edi
    2616:	56                   	push   %esi
    2617:	53                   	push   %ebx
    2618:	83 ec 18             	sub    $0x18,%esp
    261b:	ff 74 24 2c          	push   0x2c(%esp)
    261f:	e8 f9 03 00 00       	call   2a1d <string_length>
    2624:	83 c0 01             	add    $0x1,%eax
    2627:	89 04 24             	mov    %eax,(%esp)
    262a:	e8 fc ff ff ff       	call   262b <phase_4+0x17>
    262f:	89 c7                	mov    %eax,%edi
    2631:	8b 44 24 30          	mov    0x30(%esp),%eax
    2635:	0f b6 00             	movzbl (%eax),%eax
    2638:	83 c4 10             	add    $0x10,%esp
    263b:	84 c0                	test   %al,%al
    263d:	74 40                	je     267f <phase_4+0x6b>
    263f:	8d 57 01             	lea    0x1(%edi),%edx
    2642:	eb 23                	jmp    2667 <phase_4+0x53>
    2644:	83 e9 4e             	sub    $0x4e,%ecx
    2647:	89 d5                	mov    %edx,%ebp
    2649:	80 f9 0c             	cmp    $0xc,%cl
    264c:	77 03                	ja     2651 <phase_4+0x3d>
    264e:	8d 46 f3             	lea    -0xd(%esi),%eax
    2651:	88 42 ff             	mov    %al,-0x1(%edx)
    2654:	83 44 24 20 01       	addl   $0x1,0x20(%esp)
    2659:	8b 44 24 20          	mov    0x20(%esp),%eax
    265d:	0f b6 00             	movzbl (%eax),%eax
    2660:	83 c2 01             	add    $0x1,%edx
    2663:	84 c0                	test   %al,%al
    2665:	74 1a                	je     2681 <phase_4+0x6d>
    2667:	89 c6                	mov    %eax,%esi
    2669:	89 c1                	mov    %eax,%ecx
    266b:	83 e1 df             	and    $0xffffffdf,%ecx
    266e:	8d 69 bf             	lea    -0x41(%ecx),%ebp
    2671:	89 eb                	mov    %ebp,%ebx
    2673:	80 fb 0c             	cmp    $0xc,%bl
    2676:	77 cc                	ja     2644 <phase_4+0x30>
    2678:	89 d5                	mov    %edx,%ebp
    267a:	83 c0 0d             	add    $0xd,%eax
    267d:	eb d2                	jmp    2651 <phase_4+0x3d>
    267f:	89 fd                	mov    %edi,%ebp
    2681:	c6 45 00 00          	movb   $0x0,0x0(%ebp)
    2685:	83 ec 08             	sub    $0x8,%esp
    2688:	68 e0 41 00 00       	push   $0x41e0
    268d:	57                   	push   %edi
    268e:	e8 a8 03 00 00       	call   2a3b <strings_not_equal>
    2693:	83 c4 10             	add    $0x10,%esp
    2696:	85 c0                	test   %eax,%eax
    2698:	75 08                	jne    26a2 <phase_4+0x8e>
    269a:	83 c4 0c             	add    $0xc,%esp
    269d:	5b                   	pop    %ebx
    269e:	5e                   	pop    %esi
    269f:	5f                   	pop    %edi
    26a0:	5d                   	pop    %ebp
    26a1:	c3                   	ret    
    26a2:	e8 dc 05 00 00       	call   2c83 <explode_bomb>
    26a7:	eb f1                	jmp    269a <phase_4+0x86>

000026a9 <phase_5>:
    26a9:	53                   	push   %ebx
    26aa:	83 ec 1c             	sub    $0x1c,%esp
    26ad:	8d 44 24 10          	lea    0x10(%esp),%eax
    26b1:	50                   	push   %eax
    26b2:	68 40 44 00 00       	push   $0x4440
    26b7:	ff 74 24 2c          	push   0x2c(%esp)
    26bb:	e8 fc ff ff ff       	call   26bc <phase_5+0x13>
    26c0:	83 c4 10             	add    $0x10,%esp
    26c3:	83 f8 01             	cmp    $0x1,%eax
    26c6:	75 29                	jne    26f1 <phase_5+0x48>
    26c8:	8b 5c 24 0c          	mov    0xc(%esp),%ebx
    26cc:	85 db                	test   %ebx,%ebx
    26ce:	7e 28                	jle    26f8 <phase_5+0x4f>
    26d0:	b8 01 00 00 00       	mov    $0x1,%eax
    26d5:	ba 00 00 00 00       	mov    $0x0,%edx
    26da:	8d 0c 40             	lea    (%eax,%eax,2),%ecx
    26dd:	8d 04 81             	lea    (%ecx,%eax,4),%eax
    26e0:	83 c2 01             	add    $0x1,%edx
    26e3:	39 da                	cmp    %ebx,%edx
    26e5:	75 f3                	jne    26da <phase_5+0x31>
    26e7:	83 f8 31             	cmp    $0x31,%eax
    26ea:	75 0c                	jne    26f8 <phase_5+0x4f>
    26ec:	83 c4 18             	add    $0x18,%esp
    26ef:	5b                   	pop    %ebx
    26f0:	c3                   	ret    
    26f1:	e8 8d 05 00 00       	call   2c83 <explode_bomb>
    26f6:	eb d0                	jmp    26c8 <phase_5+0x1f>
    26f8:	e8 86 05 00 00       	call   2c83 <explode_bomb>
    26fd:	eb ed                	jmp    26ec <phase_5+0x43>

000026ff <func6>:
    26ff:	57                   	push   %edi
    2700:	56                   	push   %esi
    2701:	53                   	push   %ebx
    2702:	8b 5c 24 10          	mov    0x10(%esp),%ebx
    2706:	8b 7c 24 14          	mov    0x14(%esp),%edi
    270a:	b8 00 00 00 00       	mov    $0x0,%eax
    270f:	85 db                	test   %ebx,%ebx
    2711:	7e 29                	jle    273c <func6+0x3d>
    2713:	89 f8                	mov    %edi,%eax
    2715:	83 fb 01             	cmp    $0x1,%ebx
    2718:	74 22                	je     273c <func6+0x3d>
    271a:	83 ec 08             	sub    $0x8,%esp
    271d:	57                   	push   %edi
    271e:	8d 43 ff             	lea    -0x1(%ebx),%eax
    2721:	50                   	push   %eax
    2722:	e8 d8 ff ff ff       	call   26ff <func6>
    2727:	83 c4 08             	add    $0x8,%esp
    272a:	8d 34 38             	lea    (%eax,%edi,1),%esi
    272d:	57                   	push   %edi
    272e:	83 eb 02             	sub    $0x2,%ebx
    2731:	53                   	push   %ebx
    2732:	e8 c8 ff ff ff       	call   26ff <func6>
    2737:	83 c4 10             	add    $0x10,%esp
    273a:	01 f0                	add    %esi,%eax
    273c:	5b                   	pop    %ebx
    273d:	5e                   	pop    %esi
    273e:	5f                   	pop    %edi
    273f:	c3                   	ret    

00002740 <phase_6>:
    2740:	83 ec 1c             	sub    $0x1c,%esp
    2743:	8d 44 24 0c          	lea    0xc(%esp),%eax
    2747:	50                   	push   %eax
    2748:	8d 44 24 0c          	lea    0xc(%esp),%eax
    274c:	50                   	push   %eax
    274d:	68 3d 44 00 00       	push   $0x443d
    2752:	ff 74 24 2c          	push   0x2c(%esp)
    2756:	e8 fc ff ff ff       	call   2757 <phase_6+0x17>
    275b:	83 c4 10             	add    $0x10,%esp
    275e:	83 f8 02             	cmp    $0x2,%eax
    2761:	75 0c                	jne    276f <phase_6+0x2f>
    2763:	8b 44 24 0c          	mov    0xc(%esp),%eax
    2767:	83 e8 02             	sub    $0x2,%eax
    276a:	83 f8 02             	cmp    $0x2,%eax
    276d:	76 05                	jbe    2774 <phase_6+0x34>
    276f:	e8 0f 05 00 00       	call   2c83 <explode_bomb>
    2774:	83 ec 08             	sub    $0x8,%esp
    2777:	ff 74 24 14          	push   0x14(%esp)
    277b:	6a 08                	push   $0x8
    277d:	e8 7d ff ff ff       	call   26ff <func6>
    2782:	83 c4 10             	add    $0x10,%esp
    2785:	39 44 24 08          	cmp    %eax,0x8(%esp)
    2789:	75 04                	jne    278f <phase_6+0x4f>
    278b:	83 c4 1c             	add    $0x1c,%esp
    278e:	c3                   	ret    
    278f:	e8 ef 04 00 00       	call   2c83 <explode_bomb>
    2794:	eb f5                	jmp    278b <phase_6+0x4b>

00002796 <phase_7>:
    2796:	83 ec 1c             	sub    $0x1c,%esp
    2799:	8d 44 24 08          	lea    0x8(%esp),%eax
    279d:	50                   	push   %eax
    279e:	8d 44 24 10          	lea    0x10(%esp),%eax
    27a2:	50                   	push   %eax
    27a3:	68 3d 44 00 00       	push   $0x443d
    27a8:	ff 74 24 2c          	push   0x2c(%esp)
    27ac:	e8 fc ff ff ff       	call   27ad <phase_7+0x17>
    27b1:	83 c4 10             	add    $0x10,%esp
    27b4:	83 f8 01             	cmp    $0x1,%eax
    27b7:	7e 47                	jle    2800 <phase_7+0x6a>
    27b9:	8b 44 24 0c          	mov    0xc(%esp),%eax
    27bd:	83 e0 0f             	and    $0xf,%eax
    27c0:	89 44 24 0c          	mov    %eax,0xc(%esp)
    27c4:	83 f8 0f             	cmp    $0xf,%eax
    27c7:	74 2e                	je     27f7 <phase_7+0x61>
    27c9:	b9 00 00 00 00       	mov    $0x0,%ecx
    27ce:	ba 00 00 00 00       	mov    $0x0,%edx
    27d3:	83 c2 01             	add    $0x1,%edx
    27d6:	8b 04 85 40 42 00 00 	mov    0x4240(,%eax,4),%eax
    27dd:	01 c1                	add    %eax,%ecx
    27df:	83 f8 0f             	cmp    $0xf,%eax
    27e2:	75 ef                	jne    27d3 <phase_7+0x3d>
    27e4:	c7 44 24 0c 0f 00 00 	movl   $0xf,0xc(%esp)
    27eb:	00 
    27ec:	83 fa 0f             	cmp    $0xf,%edx
    27ef:	75 06                	jne    27f7 <phase_7+0x61>
    27f1:	39 4c 24 08          	cmp    %ecx,0x8(%esp)
    27f5:	74 05                	je     27fc <phase_7+0x66>
    27f7:	e8 87 04 00 00       	call   2c83 <explode_bomb>
    27fc:	83 c4 1c             	add    $0x1c,%esp
    27ff:	c3                   	ret    
    2800:	e8 7e 04 00 00       	call   2c83 <explode_bomb>
    2805:	eb b2                	jmp    27b9 <phase_7+0x23>

00002807 <phase_8>:
    2807:	55                   	push   %ebp
    2808:	57                   	push   %edi
    2809:	56                   	push   %esi
    280a:	53                   	push   %ebx
    280b:	83 ec 54             	sub    $0x54,%esp
    280e:	8d 44 24 30          	lea    0x30(%esp),%eax
    2812:	50                   	push   %eax
    2813:	ff 74 24 6c          	push   0x6c(%esp)
    2817:	e8 a6 04 00 00       	call   2cc2 <read_six_numbers>
    281c:	8d 7c 24 38          	lea    0x38(%esp),%edi
    2820:	83 c4 10             	add    $0x10,%esp
    2823:	89 fd                	mov    %edi,%ebp
    2825:	c7 44 24 0c 00 00 00 	movl   $0x0,0xc(%esp)
    282c:	00 
    282d:	eb 21                	jmp    2850 <phase_8+0x49>
    282f:	e8 4f 04 00 00       	call   2c83 <explode_bomb>
    2834:	eb 27                	jmp    285d <phase_8+0x56>
    2836:	83 c3 01             	add    $0x1,%ebx
    2839:	83 fb 06             	cmp    $0x6,%ebx
    283c:	74 0f                	je     284d <phase_8+0x46>
    283e:	8b 44 9c 28          	mov    0x28(%esp,%ebx,4),%eax
    2842:	39 06                	cmp    %eax,(%esi)
    2844:	75 f0                	jne    2836 <phase_8+0x2f>
    2846:	e8 38 04 00 00       	call   2c83 <explode_bomb>
    284b:	eb e9                	jmp    2836 <phase_8+0x2f>
    284d:	83 c5 04             	add    $0x4,%ebp
    2850:	89 ee                	mov    %ebp,%esi
    2852:	8b 45 00             	mov    0x0(%ebp),%eax
    2855:	83 e8 01             	sub    $0x1,%eax
    2858:	83 f8 05             	cmp    $0x5,%eax
    285b:	77 d2                	ja     282f <phase_8+0x28>
    285d:	83 44 24 0c 01       	addl   $0x1,0xc(%esp)
    2862:	8b 5c 24 0c          	mov    0xc(%esp),%ebx
    2866:	83 fb 05             	cmp    $0x5,%ebx
    2869:	7e d3                	jle    283e <phase_8+0x37>
    286b:	8d 54 24 40          	lea    0x40(%esp),%edx
    286f:	b9 07 00 00 00       	mov    $0x7,%ecx
    2874:	89 c8                	mov    %ecx,%eax
    2876:	2b 07                	sub    (%edi),%eax
    2878:	89 07                	mov    %eax,(%edi)
    287a:	83 c7 04             	add    $0x4,%edi
    287d:	39 fa                	cmp    %edi,%edx
    287f:	75 f3                	jne    2874 <phase_8+0x6d>
    2881:	bb 00 00 00 00       	mov    $0x0,%ebx
    2886:	89 de                	mov    %ebx,%esi
    2888:	8b 4c 9c 28          	mov    0x28(%esp,%ebx,4),%ecx
    288c:	b8 01 00 00 00       	mov    $0x1,%eax
    2891:	ba d4 70 00 00       	mov    $0x70d4,%edx
    2896:	83 f9 01             	cmp    $0x1,%ecx
    2899:	7e 0a                	jle    28a5 <phase_8+0x9e>
    289b:	8b 52 08             	mov    0x8(%edx),%edx
    289e:	83 c0 01             	add    $0x1,%eax
    28a1:	39 c8                	cmp    %ecx,%eax
    28a3:	75 f6                	jne    289b <phase_8+0x94>
    28a5:	89 54 b4 10          	mov    %edx,0x10(%esp,%esi,4)
    28a9:	83 c3 01             	add    $0x1,%ebx
    28ac:	83 fb 06             	cmp    $0x6,%ebx
    28af:	75 d5                	jne    2886 <phase_8+0x7f>
    28b1:	8b 5c 24 10          	mov    0x10(%esp),%ebx
    28b5:	8b 44 24 14          	mov    0x14(%esp),%eax
    28b9:	89 43 08             	mov    %eax,0x8(%ebx)
    28bc:	8b 54 24 18          	mov    0x18(%esp),%edx
    28c0:	89 50 08             	mov    %edx,0x8(%eax)
    28c3:	8b 44 24 1c          	mov    0x1c(%esp),%eax
    28c7:	89 42 08             	mov    %eax,0x8(%edx)
    28ca:	8b 54 24 20          	mov    0x20(%esp),%edx
    28ce:	89 50 08             	mov    %edx,0x8(%eax)
    28d1:	8b 44 24 24          	mov    0x24(%esp),%eax
    28d5:	89 42 08             	mov    %eax,0x8(%edx)
    28d8:	c7 40 08 00 00 00 00 	movl   $0x0,0x8(%eax)
    28df:	be 05 00 00 00       	mov    $0x5,%esi
    28e4:	eb 08                	jmp    28ee <phase_8+0xe7>
    28e6:	8b 5b 08             	mov    0x8(%ebx),%ebx
    28e9:	83 ee 01             	sub    $0x1,%esi
    28ec:	74 10                	je     28fe <phase_8+0xf7>
    28ee:	8b 43 08             	mov    0x8(%ebx),%eax
    28f1:	8b 00                	mov    (%eax),%eax
    28f3:	39 03                	cmp    %eax,(%ebx)
    28f5:	7d ef                	jge    28e6 <phase_8+0xdf>
    28f7:	e8 87 03 00 00       	call   2c83 <explode_bomb>
    28fc:	eb e8                	jmp    28e6 <phase_8+0xdf>
    28fe:	83 c4 4c             	add    $0x4c,%esp
    2901:	5b                   	pop    %ebx
    2902:	5e                   	pop    %esi
    2903:	5f                   	pop    %edi
    2904:	5d                   	pop    %ebp
    2905:	c3                   	ret    

00002906 <fun9>:
    2906:	53                   	push   %ebx
    2907:	83 ec 08             	sub    $0x8,%esp
    290a:	8b 54 24 10          	mov    0x10(%esp),%edx
    290e:	8b 4c 24 14          	mov    0x14(%esp),%ecx
    2912:	85 d2                	test   %edx,%edx
    2914:	74 3a                	je     2950 <fun9+0x4a>
    2916:	8b 1a                	mov    (%edx),%ebx
    2918:	39 cb                	cmp    %ecx,%ebx
    291a:	7f 0c                	jg     2928 <fun9+0x22>
    291c:	b8 00 00 00 00       	mov    $0x0,%eax
    2921:	75 18                	jne    293b <fun9+0x35>
    2923:	83 c4 08             	add    $0x8,%esp
    2926:	5b                   	pop    %ebx
    2927:	c3                   	ret    
    2928:	83 ec 08             	sub    $0x8,%esp
    292b:	51                   	push   %ecx
    292c:	ff 72 04             	push   0x4(%edx)
    292f:	e8 d2 ff ff ff       	call   2906 <fun9>
    2934:	83 c4 10             	add    $0x10,%esp
    2937:	01 c0                	add    %eax,%eax
    2939:	eb e8                	jmp    2923 <fun9+0x1d>
    293b:	83 ec 08             	sub    $0x8,%esp
    293e:	51                   	push   %ecx
    293f:	ff 72 08             	push   0x8(%edx)
    2942:	e8 bf ff ff ff       	call   2906 <fun9>
    2947:	83 c4 10             	add    $0x10,%esp
    294a:	8d 44 00 01          	lea    0x1(%eax,%eax,1),%eax
    294e:	eb d3                	jmp    2923 <fun9+0x1d>
    2950:	b8 ff ff ff ff       	mov    $0xffffffff,%eax
    2955:	eb cc                	jmp    2923 <fun9+0x1d>

00002957 <phase_9>:
    2957:	53                   	push   %ebx
    2958:	83 ec 0c             	sub    $0xc,%esp
    295b:	6a 0a                	push   $0xa
    295d:	6a 00                	push   $0x0
    295f:	ff 74 24 1c          	push   0x1c(%esp)
    2963:	e8 fc ff ff ff       	call   2964 <phase_9+0xd>
    2968:	89 c3                	mov    %eax,%ebx
    296a:	8d 40 ff             	lea    -0x1(%eax),%eax
    296d:	83 c4 10             	add    $0x10,%esp
    2970:	3d e8 03 00 00       	cmp    $0x3e8,%eax
    2975:	77 1b                	ja     2992 <phase_9+0x3b>
    2977:	83 ec 08             	sub    $0x8,%esp
    297a:	53                   	push   %ebx
    297b:	68 20 70 00 00       	push   $0x7020
    2980:	e8 81 ff ff ff       	call   2906 <fun9>
    2985:	83 c4 10             	add    $0x10,%esp
    2988:	83 f8 05             	cmp    $0x5,%eax
    298b:	75 0c                	jne    2999 <phase_9+0x42>
    298d:	83 c4 08             	add    $0x8,%esp
    2990:	5b                   	pop    %ebx
    2991:	c3                   	ret    
    2992:	e8 ec 02 00 00       	call   2c83 <explode_bomb>
    2997:	eb de                	jmp    2977 <phase_9+0x20>
    2999:	e8 e5 02 00 00       	call   2c83 <explode_bomb>
    299e:	eb ed                	jmp    298d <phase_9+0x36>

000029a0 <sig_handler>:
    29a0:	56                   	push   %esi
    29a1:	5e                   	pop    %esi
    29a2:	83 ec 18             	sub    $0x18,%esp
    29a5:	68 80 42 00 00       	push   $0x4280
    29aa:	e8 fc ff ff ff       	call   29ab <sig_handler+0xb>
    29af:	c7 04 24 03 00 00 00 	movl   $0x3,(%esp)
    29b6:	e8 fc ff ff ff       	call   29b7 <sig_handler+0x17>
    29bb:	83 c4 08             	add    $0x8,%esp
    29be:	68 b9 43 00 00       	push   $0x43b9
    29c3:	6a 01                	push   $0x1
    29c5:	e8 fc ff ff ff       	call   29c6 <sig_handler+0x26>
    29ca:	83 c4 04             	add    $0x4,%esp
    29cd:	ff 35 00 00 00 00    	push   0x0
    29d3:	e8 fc ff ff ff       	call   29d4 <sig_handler+0x34>
    29d8:	c7 04 24 01 00 00 00 	movl   $0x1,(%esp)
    29df:	e8 fc ff ff ff       	call   29e0 <sig_handler+0x40>
    29e4:	c7 04 24 c1 43 00 00 	movl   $0x43c1,(%esp)
    29eb:	e8 fc ff ff ff       	call   29ec <sig_handler+0x4c>
    29f0:	c7 04 24 10 00 00 00 	movl   $0x10,(%esp)
    29f7:	e8 fc ff ff ff       	call   29f8 <sig_handler+0x58>

000029fc <invalid_phase>:
    29fc:	56                   	push   %esi
    29fd:	5e                   	pop    %esi
    29fe:	83 ec 10             	sub    $0x10,%esp
    2a01:	ff 74 24 14          	push   0x14(%esp)
    2a05:	68 c9 43 00 00       	push   $0x43c9
    2a0a:	6a 01                	push   $0x1
    2a0c:	e8 fc ff ff ff       	call   2a0d <invalid_phase+0x11>
    2a11:	c7 04 24 08 00 00 00 	movl   $0x8,(%esp)
    2a18:	e8 fc ff ff ff       	call   2a19 <invalid_phase+0x1d>

00002a1d <string_length>:
    2a1d:	8b 54 24 04          	mov    0x4(%esp),%edx
    2a21:	80 3a 00             	cmpb   $0x0,(%edx)
    2a24:	74 0f                	je     2a35 <string_length+0x18>
    2a26:	b8 00 00 00 00       	mov    $0x0,%eax
    2a2b:	83 c0 01             	add    $0x1,%eax
    2a2e:	80 3c 02 00          	cmpb   $0x0,(%edx,%eax,1)
    2a32:	75 f7                	jne    2a2b <string_length+0xe>
    2a34:	c3                   	ret    
    2a35:	b8 00 00 00 00       	mov    $0x0,%eax
    2a3a:	c3                   	ret    

00002a3b <strings_not_equal>:
    2a3b:	57                   	push   %edi
    2a3c:	56                   	push   %esi
    2a3d:	53                   	push   %ebx
    2a3e:	8b 5c 24 10          	mov    0x10(%esp),%ebx
    2a42:	8b 74 24 14          	mov    0x14(%esp),%esi
    2a46:	53                   	push   %ebx
    2a47:	e8 d1 ff ff ff       	call   2a1d <string_length>
    2a4c:	89 c7                	mov    %eax,%edi
    2a4e:	89 34 24             	mov    %esi,(%esp)
    2a51:	e8 c7 ff ff ff       	call   2a1d <string_length>
    2a56:	83 c4 04             	add    $0x4,%esp
    2a59:	89 c2                	mov    %eax,%edx
    2a5b:	b8 01 00 00 00       	mov    $0x1,%eax
    2a60:	39 d7                	cmp    %edx,%edi
    2a62:	75 2b                	jne    2a8f <strings_not_equal+0x54>
    2a64:	0f b6 03             	movzbl (%ebx),%eax
    2a67:	84 c0                	test   %al,%al
    2a69:	74 18                	je     2a83 <strings_not_equal+0x48>
    2a6b:	38 06                	cmp    %al,(%esi)
    2a6d:	75 1b                	jne    2a8a <strings_not_equal+0x4f>
    2a6f:	83 c3 01             	add    $0x1,%ebx
    2a72:	83 c6 01             	add    $0x1,%esi
    2a75:	0f b6 03             	movzbl (%ebx),%eax
    2a78:	84 c0                	test   %al,%al
    2a7a:	75 ef                	jne    2a6b <strings_not_equal+0x30>
    2a7c:	b8 00 00 00 00       	mov    $0x0,%eax
    2a81:	eb 0c                	jmp    2a8f <strings_not_equal+0x54>
    2a83:	b8 00 00 00 00       	mov    $0x0,%eax
    2a88:	eb 05                	jmp    2a8f <strings_not_equal+0x54>
    2a8a:	b8 01 00 00 00       	mov    $0x1,%eax
    2a8f:	5b                   	pop    %ebx
    2a90:	5e                   	pop    %esi
    2a91:	5f                   	pop    %edi
    2a92:	c3                   	ret    

00002a93 <initialize_bomb>:
    2a93:	56                   	push   %esi
    2a94:	53                   	push   %ebx
    2a95:	81 ec 00 10 00 00    	sub    $0x1000,%esp
    2a9b:	83 0c 24 00          	orl    $0x0,(%esp)
    2a9f:	81 ec 00 10 00 00    	sub    $0x1000,%esp
    2aa5:	83 0c 24 00          	orl    $0x0,(%esp)
    2aa9:	83 ec 4c             	sub    $0x4c,%esp
    2aac:	68 a0 29 00 00       	push   $0x29a0
    2ab1:	6a 02                	push   $0x2
    2ab3:	e8 fc ff ff ff       	call   2ab4 <initialize_bomb+0x21>
    2ab8:	83 c4 08             	add    $0x8,%esp
    2abb:	6a 40                	push   $0x40
    2abd:	8d 84 24 0c 20 00 00 	lea    0x200c(%esp),%eax
    2ac4:	50                   	push   %eax
    2ac5:	e8 fc ff ff ff       	call   2ac6 <initialize_bomb+0x33>
    2aca:	83 c4 10             	add    $0x10,%esp
    2acd:	85 c0                	test   %eax,%eax
    2acf:	75 4a                	jne    2b1b <initialize_bomb+0x88>
    2ad1:	89 c3                	mov    %eax,%ebx
    2ad3:	a1 40 75 00 00       	mov    0x7540,%eax
    2ad8:	8d b4 24 00 20 00 00 	lea    0x2000(%esp),%esi
    2adf:	85 c0                	test   %eax,%eax
    2ae1:	74 1f                	je     2b02 <initialize_bomb+0x6f>
    2ae3:	83 ec 08             	sub    $0x8,%esp
    2ae6:	56                   	push   %esi
    2ae7:	50                   	push   %eax
    2ae8:	e8 fc ff ff ff       	call   2ae9 <initialize_bomb+0x56>
    2aed:	83 c4 10             	add    $0x10,%esp
    2af0:	85 c0                	test   %eax,%eax
    2af2:	74 60                	je     2b54 <initialize_bomb+0xc1>
    2af4:	83 c3 01             	add    $0x1,%ebx
    2af7:	8b 04 9d 40 75 00 00 	mov    0x7540(,%ebx,4),%eax
    2afe:	85 c0                	test   %eax,%eax
    2b00:	75 e1                	jne    2ae3 <initialize_bomb+0x50>
    2b02:	83 ec 0c             	sub    $0xc,%esp
    2b05:	68 f0 42 00 00       	push   $0x42f0
    2b0a:	e8 fc ff ff ff       	call   2b0b <initialize_bomb+0x78>
    2b0f:	c7 04 24 08 00 00 00 	movl   $0x8,(%esp)
    2b16:	e8 fc ff ff ff       	call   2b17 <initialize_bomb+0x84>
    2b1b:	83 ec 0c             	sub    $0xc,%esp
    2b1e:	68 b8 42 00 00       	push   $0x42b8
    2b23:	e8 fc ff ff ff       	call   2b24 <initialize_bomb+0x91>
    2b28:	c7 04 24 08 00 00 00 	movl   $0x8,(%esp)
    2b2f:	e8 fc ff ff ff       	call   2b30 <initialize_bomb+0x9d>
    2b34:	83 ec 04             	sub    $0x4,%esp
    2b37:	8d 44 24 04          	lea    0x4(%esp),%eax
    2b3b:	50                   	push   %eax
    2b3c:	68 da 43 00 00       	push   $0x43da
    2b41:	6a 01                	push   $0x1
    2b43:	e8 fc ff ff ff       	call   2b44 <initialize_bomb+0xb1>
    2b48:	c7 04 24 08 00 00 00 	movl   $0x8,(%esp)
    2b4f:	e8 fc ff ff ff       	call   2b50 <initialize_bomb+0xbd>
    2b54:	83 ec 0c             	sub    $0xc,%esp
    2b57:	8d 44 24 0c          	lea    0xc(%esp),%eax
    2b5b:	50                   	push   %eax
    2b5c:	e8 8f 0b 00 00       	call   36f0 <init_driver>
    2b61:	83 c4 10             	add    $0x10,%esp
    2b64:	85 c0                	test   %eax,%eax
    2b66:	78 cc                	js     2b34 <initialize_bomb+0xa1>
    2b68:	81 c4 44 20 00 00    	add    $0x2044,%esp
    2b6e:	5b                   	pop    %ebx
    2b6f:	5e                   	pop    %esi
    2b70:	c3                   	ret    

00002b71 <initialize_bomb_solve>:
    2b71:	c3                   	ret    

00002b72 <blank_line>:
    2b72:	56                   	push   %esi
    2b73:	53                   	push   %ebx
    2b74:	83 ec 04             	sub    $0x4,%esp
    2b77:	8b 74 24 10          	mov    0x10(%esp),%esi
    2b7b:	0f b6 1e             	movzbl (%esi),%ebx
    2b7e:	84 db                	test   %bl,%bl
    2b80:	74 1b                	je     2b9d <blank_line+0x2b>
    2b82:	e8 fc ff ff ff       	call   2b83 <blank_line+0x11>
    2b87:	83 c6 01             	add    $0x1,%esi
    2b8a:	0f be db             	movsbl %bl,%ebx
    2b8d:	8b 00                	mov    (%eax),%eax
    2b8f:	f6 44 58 01 20       	testb  $0x20,0x1(%eax,%ebx,2)
    2b94:	75 e5                	jne    2b7b <blank_line+0x9>
    2b96:	b8 00 00 00 00       	mov    $0x0,%eax
    2b9b:	eb 05                	jmp    2ba2 <blank_line+0x30>
    2b9d:	b8 01 00 00 00       	mov    $0x1,%eax
    2ba2:	83 c4 04             	add    $0x4,%esp
    2ba5:	5b                   	pop    %ebx
    2ba6:	5e                   	pop    %esi
    2ba7:	c3                   	ret    

00002ba8 <skip>:
    2ba8:	53                   	push   %ebx
    2ba9:	83 ec 08             	sub    $0x8,%esp
    2bac:	83 ec 04             	sub    $0x4,%esp
    2baf:	ff 35 6c 77 00 00    	push   0x776c
    2bb5:	6a 55                	push   $0x55
    2bb7:	6b 05 d8 77 00 00 55 	imul   $0x55,0x77d8,%eax
    2bbe:	05 e0 77 00 00       	add    $0x77e0,%eax
    2bc3:	50                   	push   %eax
    2bc4:	e8 fc ff ff ff       	call   2bc5 <skip+0x1d>
    2bc9:	89 c3                	mov    %eax,%ebx
    2bcb:	83 c4 10             	add    $0x10,%esp
    2bce:	85 c0                	test   %eax,%eax
    2bd0:	74 10                	je     2be2 <skip+0x3a>
    2bd2:	83 ec 0c             	sub    $0xc,%esp
    2bd5:	50                   	push   %eax
    2bd6:	e8 97 ff ff ff       	call   2b72 <blank_line>
    2bdb:	83 c4 10             	add    $0x10,%esp
    2bde:	85 c0                	test   %eax,%eax
    2be0:	75 ca                	jne    2bac <skip+0x4>
    2be2:	89 d8                	mov    %ebx,%eax
    2be4:	83 c4 08             	add    $0x8,%esp
    2be7:	5b                   	pop    %ebx
    2be8:	c3                   	ret    

00002be9 <send_msg>:
    2be9:	53                   	push   %ebx
    2bea:	8d 84 24 00 c0 ff ff 	lea    -0x4000(%esp),%eax
    2bf1:	81 ec 00 10 00 00    	sub    $0x1000,%esp
    2bf7:	83 0c 24 00          	orl    $0x0,(%esp)
    2bfb:	39 c4                	cmp    %eax,%esp
    2bfd:	75 f2                	jne    2bf1 <send_msg+0x8>
    2bff:	83 ec 08             	sub    $0x8,%esp
    2c02:	8b 0d d8 77 00 00    	mov    0x77d8,%ecx
    2c08:	8d 41 ff             	lea    -0x1(%ecx),%eax
    2c0b:	6b c0 55             	imul   $0x55,%eax,%eax
    2c0e:	05 e0 77 00 00       	add    $0x77e0,%eax
    2c13:	83 bc 24 10 40 00 00 	cmpl   $0x0,0x4010(%esp)
    2c1a:	00 
    2c1b:	ba f4 43 00 00       	mov    $0x43f4,%edx
    2c20:	bb fc 43 00 00       	mov    $0x43fc,%ebx
    2c25:	0f 44 d3             	cmove  %ebx,%edx
    2c28:	50                   	push   %eax
    2c29:	51                   	push   %ecx
    2c2a:	52                   	push   %edx
    2c2b:	ff 35 20 75 00 00    	push   0x7520
    2c31:	68 05 44 00 00       	push   $0x4405
    2c36:	68 00 20 00 00       	push   $0x2000
    2c3b:	6a 01                	push   $0x1
    2c3d:	8d 9c 24 1c 20 00 00 	lea    0x201c(%esp),%ebx
    2c44:	53                   	push   %ebx
    2c45:	e8 fc ff ff ff       	call   2c46 <send_msg+0x5d>
    2c4a:	83 c4 20             	add    $0x20,%esp
    2c4d:	54                   	push   %esp
    2c4e:	6a 00                	push   $0x0
    2c50:	53                   	push   %ebx
    2c51:	68 20 71 00 00       	push   $0x7120
    2c56:	e8 4f 0c 00 00       	call   38aa <driver_post>
    2c5b:	83 c4 10             	add    $0x10,%esp
    2c5e:	85 c0                	test   %eax,%eax
    2c60:	78 08                	js     2c6a <send_msg+0x81>
    2c62:	81 c4 08 40 00 00    	add    $0x4008,%esp
    2c68:	5b                   	pop    %ebx
    2c69:	c3                   	ret    
    2c6a:	83 ec 0c             	sub    $0xc,%esp
    2c6d:	8d 44 24 0c          	lea    0xc(%esp),%eax
    2c71:	50                   	push   %eax
    2c72:	e8 fc ff ff ff       	call   2c73 <send_msg+0x8a>
    2c77:	c7 04 24 00 00 00 00 	movl   $0x0,(%esp)
    2c7e:	e8 fc ff ff ff       	call   2c7f <send_msg+0x96>

00002c83 <explode_bomb>:
    2c83:	56                   	push   %esi
    2c84:	5e                   	pop    %esi
    2c85:	83 ec 18             	sub    $0x18,%esp
    2c88:	68 11 44 00 00       	push   $0x4411
    2c8d:	e8 fc ff ff ff       	call   2c8e <explode_bomb+0xb>
    2c92:	c7 04 24 1a 44 00 00 	movl   $0x441a,(%esp)
    2c99:	e8 fc ff ff ff       	call   2c9a <explode_bomb+0x17>
    2c9e:	c7 04 24 00 00 00 00 	movl   $0x0,(%esp)
    2ca5:	e8 3f ff ff ff       	call   2be9 <send_msg>
    2caa:	c7 04 24 28 43 00 00 	movl   $0x4328,(%esp)
    2cb1:	e8 fc ff ff ff       	call   2cb2 <explode_bomb+0x2f>
    2cb6:	c7 04 24 08 00 00 00 	movl   $0x8,(%esp)
    2cbd:	e8 fc ff ff ff       	call   2cbe <explode_bomb+0x3b>

00002cc2 <read_six_numbers>:
    2cc2:	83 ec 0c             	sub    $0xc,%esp
    2cc5:	8b 44 24 14          	mov    0x14(%esp),%eax
    2cc9:	8d 50 14             	lea    0x14(%eax),%edx
    2ccc:	52                   	push   %edx
    2ccd:	8d 50 10             	lea    0x10(%eax),%edx
    2cd0:	52                   	push   %edx
    2cd1:	8d 50 0c             	lea    0xc(%eax),%edx
    2cd4:	52                   	push   %edx
    2cd5:	8d 50 08             	lea    0x8(%eax),%edx
    2cd8:	52                   	push   %edx
    2cd9:	8d 50 04             	lea    0x4(%eax),%edx
    2cdc:	52                   	push   %edx
    2cdd:	50                   	push   %eax
    2cde:	68 31 44 00 00       	push   $0x4431
    2ce3:	ff 74 24 2c          	push   0x2c(%esp)
    2ce7:	e8 fc ff ff ff       	call   2ce8 <read_six_numbers+0x26>
    2cec:	83 c4 20             	add    $0x20,%esp
    2cef:	83 f8 05             	cmp    $0x5,%eax
    2cf2:	7e 04                	jle    2cf8 <read_six_numbers+0x36>
    2cf4:	83 c4 0c             	add    $0xc,%esp
    2cf7:	c3                   	ret    
    2cf8:	e8 86 ff ff ff       	call   2c83 <explode_bomb>

00002cfd <read_line>:
    2cfd:	57                   	push   %edi
    2cfe:	56                   	push   %esi
    2cff:	53                   	push   %ebx
    2d00:	e8 a3 fe ff ff       	call   2ba8 <skip>
    2d05:	85 c0                	test   %eax,%eax
    2d07:	74 3e                	je     2d47 <read_line+0x4a>
    2d09:	8b 1d d8 77 00 00    	mov    0x77d8,%ebx
    2d0f:	6b f3 55             	imul   $0x55,%ebx,%esi
    2d12:	81 c6 e0 77 00 00    	add    $0x77e0,%esi
    2d18:	83 ec 0c             	sub    $0xc,%esp
    2d1b:	56                   	push   %esi
    2d1c:	e8 fc ff ff ff       	call   2d1d <read_line+0x20>
    2d21:	83 c4 10             	add    $0x10,%esp
    2d24:	83 f8 53             	cmp    $0x53,%eax
    2d27:	0f 8f 8e 00 00 00    	jg     2dbb <read_line+0xbe>
    2d2d:	6b d3 55             	imul   $0x55,%ebx,%edx
    2d30:	c6 84 10 df 77 00 00 	movb   $0x0,0x77df(%eax,%edx,1)
    2d37:	00 
    2d38:	83 c3 01             	add    $0x1,%ebx
    2d3b:	89 1d d8 77 00 00    	mov    %ebx,0x77d8
    2d41:	89 f0                	mov    %esi,%eax
    2d43:	5b                   	pop    %ebx
    2d44:	5e                   	pop    %esi
    2d45:	5f                   	pop    %edi
    2d46:	c3                   	ret    
    2d47:	a1 00 00 00 00       	mov    0x0,%eax
    2d4c:	39 05 6c 77 00 00    	cmp    %eax,0x776c
    2d52:	74 1e                	je     2d72 <read_line+0x75>
    2d54:	83 ec 0c             	sub    $0xc,%esp
    2d57:	68 61 44 00 00       	push   $0x4461
    2d5c:	e8 fc ff ff ff       	call   2d5d <read_line+0x60>
    2d61:	83 c4 10             	add    $0x10,%esp
    2d64:	85 c0                	test   %eax,%eax
    2d66:	74 23                	je     2d8b <read_line+0x8e>
    2d68:	83 ec 0c             	sub    $0xc,%esp
    2d6b:	6a 00                	push   $0x0
    2d6d:	e8 fc ff ff ff       	call   2d6e <read_line+0x71>
    2d72:	83 ec 0c             	sub    $0xc,%esp
    2d75:	68 43 44 00 00       	push   $0x4443
    2d7a:	e8 fc ff ff ff       	call   2d7b <read_line+0x7e>
    2d7f:	c7 04 24 08 00 00 00 	movl   $0x8,(%esp)
    2d86:	e8 fc ff ff ff       	call   2d87 <read_line+0x8a>
    2d8b:	a1 00 00 00 00       	mov    0x0,%eax
    2d90:	a3 6c 77 00 00       	mov    %eax,0x776c
    2d95:	e8 0e fe ff ff       	call   2ba8 <skip>
    2d9a:	85 c0                	test   %eax,%eax
    2d9c:	0f 85 67 ff ff ff    	jne    2d09 <read_line+0xc>
    2da2:	83 ec 0c             	sub    $0xc,%esp
    2da5:	68 43 44 00 00       	push   $0x4443
    2daa:	e8 fc ff ff ff       	call   2dab <read_line+0xae>
    2daf:	c7 04 24 00 00 00 00 	movl   $0x0,(%esp)
    2db6:	e8 fc ff ff ff       	call   2db7 <read_line+0xba>
    2dbb:	83 ec 0c             	sub    $0xc,%esp
    2dbe:	68 6c 44 00 00       	push   $0x446c
    2dc3:	e8 fc ff ff ff       	call   2dc4 <read_line+0xc7>
    2dc8:	a1 d8 77 00 00       	mov    0x77d8,%eax
    2dcd:	8d 50 01             	lea    0x1(%eax),%edx
    2dd0:	89 15 d8 77 00 00    	mov    %edx,0x77d8
    2dd6:	6b c0 55             	imul   $0x55,%eax,%eax
    2dd9:	05 e0 77 00 00       	add    $0x77e0,%eax
    2dde:	be 87 44 00 00       	mov    $0x4487,%esi
    2de3:	b9 04 00 00 00       	mov    $0x4,%ecx
    2de8:	89 c7                	mov    %eax,%edi
    2dea:	f3 a5                	rep movsl %ds:(%esi),%es:(%edi)
    2dec:	e8 92 fe ff ff       	call   2c83 <explode_bomb>

00002df1 <phase_defused>:
    2df1:	83 ec 18             	sub    $0x18,%esp
    2df4:	6a 01                	push   $0x1
    2df6:	e8 ee fd ff ff       	call   2be9 <send_msg>
    2dfb:	83 c4 10             	add    $0x10,%esp
    2dfe:	83 3d d8 77 00 00 09 	cmpl   $0x9,0x77d8
    2e05:	74 04                	je     2e0b <phase_defused+0x1a>
    2e07:	83 c4 0c             	add    $0xc,%esp
    2e0a:	c3                   	ret    
    2e0b:	83 ec 0c             	sub    $0xc,%esp
    2e0e:	68 4c 43 00 00       	push   $0x434c
    2e13:	e8 fc ff ff ff       	call   2e14 <phase_defused+0x23>
    2e18:	c7 04 24 78 43 00 00 	movl   $0x4378,(%esp)
    2e1f:	e8 fc ff ff ff       	call   2e20 <phase_defused+0x2f>
    2e24:	83 c4 10             	add    $0x10,%esp
    2e27:	eb de                	jmp    2e07 <phase_defused+0x16>

00002e29 <sigalrm_handler>:
    2e29:	56                   	push   %esi
    2e2a:	5e                   	pop    %esi
    2e2b:	83 ec 0c             	sub    $0xc,%esp
    2e2e:	6a 00                	push   $0x0
    2e30:	68 10 47 00 00       	push   $0x4710
    2e35:	6a 01                	push   $0x1
    2e37:	ff 35 00 00 00 00    	push   0x0
    2e3d:	e8 fc ff ff ff       	call   2e3e <sigalrm_handler+0x15>
    2e42:	c7 04 24 01 00 00 00 	movl   $0x1,(%esp)
    2e49:	e8 fc ff ff ff       	call   2e4a <sigalrm_handler+0x21>

00002e4e <rio_readlineb>:
    2e4e:	55                   	push   %ebp
    2e4f:	57                   	push   %edi
    2e50:	56                   	push   %esi
    2e51:	53                   	push   %ebx
    2e52:	83 ec 1c             	sub    $0x1c,%esp
    2e55:	89 d7                	mov    %edx,%edi
    2e57:	83 f9 01             	cmp    $0x1,%ecx
    2e5a:	76 7e                	jbe    2eda <rio_readlineb+0x8c>
    2e5c:	89 c3                	mov    %eax,%ebx
    2e5e:	8d 44 0a ff          	lea    -0x1(%edx,%ecx,1),%eax
    2e62:	89 44 24 0c          	mov    %eax,0xc(%esp)
    2e66:	bd 01 00 00 00       	mov    $0x1,%ebp
    2e6b:	8d 73 0c             	lea    0xc(%ebx),%esi
    2e6e:	eb 4f                	jmp    2ebf <rio_readlineb+0x71>
    2e70:	e8 fc ff ff ff       	call   2e71 <rio_readlineb+0x23>
    2e75:	83 38 04             	cmpl   $0x4,(%eax)
    2e78:	75 4e                	jne    2ec8 <rio_readlineb+0x7a>
    2e7a:	83 ec 04             	sub    $0x4,%esp
    2e7d:	68 00 20 00 00       	push   $0x2000
    2e82:	56                   	push   %esi
    2e83:	ff 33                	push   (%ebx)
    2e85:	e8 fc ff ff ff       	call   2e86 <rio_readlineb+0x38>
    2e8a:	89 43 04             	mov    %eax,0x4(%ebx)
    2e8d:	83 c4 10             	add    $0x10,%esp
    2e90:	85 c0                	test   %eax,%eax
    2e92:	78 dc                	js     2e70 <rio_readlineb+0x22>
    2e94:	74 37                	je     2ecd <rio_readlineb+0x7f>
    2e96:	89 73 08             	mov    %esi,0x8(%ebx)
    2e99:	8b 53 08             	mov    0x8(%ebx),%edx
    2e9c:	0f b6 0a             	movzbl (%edx),%ecx
    2e9f:	83 c2 01             	add    $0x1,%edx
    2ea2:	89 53 08             	mov    %edx,0x8(%ebx)
    2ea5:	83 e8 01             	sub    $0x1,%eax
    2ea8:	89 43 04             	mov    %eax,0x4(%ebx)
    2eab:	83 c7 01             	add    $0x1,%edi
    2eae:	88 4f ff             	mov    %cl,-0x1(%edi)
    2eb1:	80 f9 0a             	cmp    $0xa,%cl
    2eb4:	74 2f                	je     2ee5 <rio_readlineb+0x97>
    2eb6:	83 c5 01             	add    $0x1,%ebp
    2eb9:	3b 7c 24 0c          	cmp    0xc(%esp),%edi
    2ebd:	74 22                	je     2ee1 <rio_readlineb+0x93>
    2ebf:	8b 43 04             	mov    0x4(%ebx),%eax
    2ec2:	85 c0                	test   %eax,%eax
    2ec4:	7e b4                	jle    2e7a <rio_readlineb+0x2c>
    2ec6:	eb d1                	jmp    2e99 <rio_readlineb+0x4b>
    2ec8:	b8 ff ff ff ff       	mov    $0xffffffff,%eax
    2ecd:	85 c0                	test   %eax,%eax
    2ecf:	75 21                	jne    2ef2 <rio_readlineb+0xa4>
    2ed1:	83 fd 01             	cmp    $0x1,%ebp
    2ed4:	75 0f                	jne    2ee5 <rio_readlineb+0x97>
    2ed6:	89 c5                	mov    %eax,%ebp
    2ed8:	eb 0e                	jmp    2ee8 <rio_readlineb+0x9a>
    2eda:	bd 01 00 00 00       	mov    $0x1,%ebp
    2edf:	eb 04                	jmp    2ee5 <rio_readlineb+0x97>
    2ee1:	8b 7c 24 0c          	mov    0xc(%esp),%edi
    2ee5:	c6 07 00             	movb   $0x0,(%edi)
    2ee8:	89 e8                	mov    %ebp,%eax
    2eea:	83 c4 1c             	add    $0x1c,%esp
    2eed:	5b                   	pop    %ebx
    2eee:	5e                   	pop    %esi
    2eef:	5f                   	pop    %edi
    2ef0:	5d                   	pop    %ebp
    2ef1:	c3                   	ret    
    2ef2:	bd ff ff ff ff       	mov    $0xffffffff,%ebp
    2ef7:	eb ef                	jmp    2ee8 <rio_readlineb+0x9a>

00002ef9 <submitr>:
    2ef9:	55                   	push   %ebp
    2efa:	57                   	push   %edi
    2efb:	56                   	push   %esi
    2efc:	53                   	push   %ebx
    2efd:	8d 84 24 00 60 ff ff 	lea    -0xa000(%esp),%eax
    2f04:	81 ec 00 10 00 00    	sub    $0x1000,%esp
    2f0a:	83 0c 24 00          	orl    $0x0,(%esp)
    2f0e:	39 c4                	cmp    %eax,%esp
    2f10:	75 f2                	jne    2f04 <submitr+0xb>
    2f12:	83 ec 50             	sub    $0x50,%esp
    2f15:	c7 84 24 24 20 00 00 	movl   $0x0,0x2024(%esp)
    2f1c:	00 00 00 00 
    2f20:	6a 00                	push   $0x0
    2f22:	6a 01                	push   $0x1
    2f24:	6a 02                	push   $0x2
    2f26:	e8 fc ff ff ff       	call   2f27 <submitr+0x2e>
    2f2b:	83 c4 10             	add    $0x10,%esp
    2f2e:	85 c0                	test   %eax,%eax
    2f30:	0f 88 45 01 00 00    	js     307b <submitr+0x182>
    2f36:	89 c5                	mov    %eax,%ebp
    2f38:	83 ec 0c             	sub    $0xc,%esp
    2f3b:	ff b4 24 6c a0 00 00 	push   0xa06c(%esp)
    2f42:	e8 fc ff ff ff       	call   2f43 <submitr+0x4a>
    2f47:	83 c4 10             	add    $0x10,%esp
    2f4a:	85 c0                	test   %eax,%eax
    2f4c:	0f 84 7e 01 00 00    	je     30d0 <submitr+0x1d7>
    2f52:	8d 9c 24 30 a0 00 00 	lea    0xa030(%esp),%ebx
    2f59:	c7 84 24 30 a0 00 00 	movl   $0x0,0xa030(%esp)
    2f60:	00 00 00 00 
    2f64:	c7 84 24 34 a0 00 00 	movl   $0x0,0xa034(%esp)
    2f6b:	00 00 00 00 
    2f6f:	c7 84 24 38 a0 00 00 	movl   $0x0,0xa038(%esp)
    2f76:	00 00 00 00 
    2f7a:	c7 84 24 3c a0 00 00 	movl   $0x0,0xa03c(%esp)
    2f81:	00 00 00 00 
    2f85:	66 c7 84 24 30 a0 00 	movw   $0x2,0xa030(%esp)
    2f8c:	00 02 00 
    2f8f:	6a 0c                	push   $0xc
    2f91:	ff 70 0c             	push   0xc(%eax)
    2f94:	8b 40 10             	mov    0x10(%eax),%eax
    2f97:	ff 30                	push   (%eax)
    2f99:	8d 84 24 40 a0 00 00 	lea    0xa040(%esp),%eax
    2fa0:	50                   	push   %eax
    2fa1:	e8 fc ff ff ff       	call   2fa2 <submitr+0xa9>
    2fa6:	0f b7 84 24 74 a0 00 	movzwl 0xa074(%esp),%eax
    2fad:	00 
    2fae:	66 c1 c0 08          	rol    $0x8,%ax
    2fb2:	66 89 84 24 42 a0 00 	mov    %ax,0xa042(%esp)
    2fb9:	00 
    2fba:	83 c4 0c             	add    $0xc,%esp
    2fbd:	6a 10                	push   $0x10
    2fbf:	53                   	push   %ebx
    2fc0:	55                   	push   %ebp
    2fc1:	e8 fc ff ff ff       	call   2fc2 <submitr+0xc9>
    2fc6:	83 c4 10             	add    $0x10,%esp
    2fc9:	85 c0                	test   %eax,%eax
    2fcb:	0f 88 72 01 00 00    	js     3143 <submitr+0x24a>
    2fd1:	83 ec 0c             	sub    $0xc,%esp
    2fd4:	ff b4 24 80 a0 00 00 	push   0xa080(%esp)
    2fdb:	e8 fc ff ff ff       	call   2fdc <submitr+0xe3>
    2fe0:	83 c4 04             	add    $0x4,%esp
    2fe3:	89 c3                	mov    %eax,%ebx
    2fe5:	ff b4 24 74 a0 00 00 	push   0xa074(%esp)
    2fec:	e8 fc ff ff ff       	call   2fed <submitr+0xf4>
    2ff1:	83 c4 04             	add    $0x4,%esp
    2ff4:	89 c7                	mov    %eax,%edi
    2ff6:	ff b4 24 78 a0 00 00 	push   0xa078(%esp)
    2ffd:	e8 fc ff ff ff       	call   2ffe <submitr+0x105>
    3002:	83 c4 04             	add    $0x4,%esp
    3005:	89 c6                	mov    %eax,%esi
    3007:	ff b4 24 7c a0 00 00 	push   0xa07c(%esp)
    300e:	e8 fc ff ff ff       	call   300f <submitr+0x116>
    3013:	83 c4 10             	add    $0x10,%esp
    3016:	89 c2                	mov    %eax,%edx
    3018:	8d 84 37 80 00 00 00 	lea    0x80(%edi,%esi,1),%eax
    301f:	01 d0                	add    %edx,%eax
    3021:	8d 14 5b             	lea    (%ebx,%ebx,2),%edx
    3024:	01 d0                	add    %edx,%eax
    3026:	3d 00 20 00 00       	cmp    $0x2000,%eax
    302b:	0f 87 77 01 00 00    	ja     31a8 <submitr+0x2af>
    3031:	8d 94 24 24 40 00 00 	lea    0x4024(%esp),%edx
    3038:	b9 00 08 00 00       	mov    $0x800,%ecx
    303d:	b8 00 00 00 00       	mov    $0x0,%eax
    3042:	89 d7                	mov    %edx,%edi
    3044:	f3 ab                	rep stos %eax,%es:(%edi)
    3046:	83 ec 0c             	sub    $0xc,%esp
    3049:	ff b4 24 80 a0 00 00 	push   0xa080(%esp)
    3050:	e8 fc ff ff ff       	call   3051 <submitr+0x158>
    3055:	83 c4 10             	add    $0x10,%esp
    3058:	89 c7                	mov    %eax,%edi
    305a:	85 c0                	test   %eax,%eax
    305c:	0f 84 5a 02 00 00    	je     32bc <submitr+0x3c3>
    3062:	8b 9c 24 74 a0 00 00 	mov    0xa074(%esp),%ebx
    3069:	8d b4 24 24 40 00 00 	lea    0x4024(%esp),%esi
    3070:	89 6c 24 0c          	mov    %ebp,0xc(%esp)
    3074:	89 dd                	mov    %ebx,%ebp
    3076:	e9 bf 01 00 00       	jmp    323a <submitr+0x341>
    307b:	8b 84 24 78 a0 00 00 	mov    0xa078(%esp),%eax
    3082:	c7 00 45 72 72 6f    	movl   $0x6f727245,(%eax)
    3088:	c7 40 04 72 3a 20 43 	movl   $0x43203a72,0x4(%eax)
    308f:	c7 40 08 6c 69 65 6e 	movl   $0x6e65696c,0x8(%eax)
    3096:	c7 40 0c 74 20 75 6e 	movl   $0x6e752074,0xc(%eax)
    309d:	c7 40 10 61 62 6c 65 	movl   $0x656c6261,0x10(%eax)
    30a4:	c7 40 14 20 74 6f 20 	movl   $0x206f7420,0x14(%eax)
    30ab:	c7 40 18 63 72 65 61 	movl   $0x61657263,0x18(%eax)
    30b2:	c7 40 1c 74 65 20 73 	movl   $0x73206574,0x1c(%eax)
    30b9:	c7 40 20 6f 63 6b 65 	movl   $0x656b636f,0x20(%eax)
    30c0:	66 c7 40 24 74 00    	movw   $0x74,0x24(%eax)
    30c6:	b8 ff ff ff ff       	mov    $0xffffffff,%eax
    30cb:	e9 a0 04 00 00       	jmp    3570 <submitr+0x677>
    30d0:	8b 84 24 78 a0 00 00 	mov    0xa078(%esp),%eax
    30d7:	c7 00 45 72 72 6f    	movl   $0x6f727245,(%eax)
    30dd:	c7 40 04 72 3a 20 44 	movl   $0x44203a72,0x4(%eax)
    30e4:	c7 40 08 4e 53 20 69 	movl   $0x6920534e,0x8(%eax)
    30eb:	c7 40 0c 73 20 75 6e 	movl   $0x6e752073,0xc(%eax)
    30f2:	c7 40 10 61 62 6c 65 	movl   $0x656c6261,0x10(%eax)
    30f9:	c7 40 14 20 74 6f 20 	movl   $0x206f7420,0x14(%eax)
    3100:	c7 40 18 72 65 73 6f 	movl   $0x6f736572,0x18(%eax)
    3107:	c7 40 1c 6c 76 65 20 	movl   $0x2065766c,0x1c(%eax)
    310e:	c7 40 20 73 65 72 76 	movl   $0x76726573,0x20(%eax)
    3115:	c7 40 24 65 72 20 61 	movl   $0x61207265,0x24(%eax)
    311c:	c7 40 28 64 64 72 65 	movl   $0x65726464,0x28(%eax)
    3123:	66 c7 40 2c 73 73    	movw   $0x7373,0x2c(%eax)
    3129:	c6 40 2e 00          	movb   $0x0,0x2e(%eax)
    312d:	83 ec 0c             	sub    $0xc,%esp
    3130:	55                   	push   %ebp
    3131:	e8 fc ff ff ff       	call   3132 <submitr+0x239>
    3136:	83 c4 10             	add    $0x10,%esp
    3139:	b8 ff ff ff ff       	mov    $0xffffffff,%eax
    313e:	e9 2d 04 00 00       	jmp    3570 <submitr+0x677>
    3143:	8b 84 24 78 a0 00 00 	mov    0xa078(%esp),%eax
    314a:	c7 00 45 72 72 6f    	movl   $0x6f727245,(%eax)
    3150:	c7 40 04 72 3a 20 55 	movl   $0x55203a72,0x4(%eax)
    3157:	c7 40 08 6e 61 62 6c 	movl   $0x6c62616e,0x8(%eax)
    315e:	c7 40 0c 65 20 74 6f 	movl   $0x6f742065,0xc(%eax)
    3165:	c7 40 10 20 63 6f 6e 	movl   $0x6e6f6320,0x10(%eax)
    316c:	c7 40 14 6e 65 63 74 	movl   $0x7463656e,0x14(%eax)
    3173:	c7 40 18 20 74 6f 20 	movl   $0x206f7420,0x18(%eax)
    317a:	c7 40 1c 74 68 65 20 	movl   $0x20656874,0x1c(%eax)
    3181:	c7 40 20 73 65 72 76 	movl   $0x76726573,0x20(%eax)
    3188:	66 c7 40 24 65 72    	movw   $0x7265,0x24(%eax)
    318e:	c6 40 26 00          	movb   $0x0,0x26(%eax)
    3192:	83 ec 0c             	sub    $0xc,%esp
    3195:	55                   	push   %ebp
    3196:	e8 fc ff ff ff       	call   3197 <submitr+0x29e>
    319b:	83 c4 10             	add    $0x10,%esp
    319e:	b8 ff ff ff ff       	mov    $0xffffffff,%eax
    31a3:	e9 c8 03 00 00       	jmp    3570 <submitr+0x677>
    31a8:	8b 84 24 78 a0 00 00 	mov    0xa078(%esp),%eax
    31af:	c7 00 45 72 72 6f    	movl   $0x6f727245,(%eax)
    31b5:	c7 40 04 72 3a 20 52 	movl   $0x52203a72,0x4(%eax)
    31bc:	c7 40 08 65 73 75 6c 	movl   $0x6c757365,0x8(%eax)
    31c3:	c7 40 0c 74 20 73 74 	movl   $0x74732074,0xc(%eax)
    31ca:	c7 40 10 72 69 6e 67 	movl   $0x676e6972,0x10(%eax)
    31d1:	c7 40 14 20 74 6f 6f 	movl   $0x6f6f7420,0x14(%eax)
    31d8:	c7 40 18 20 6c 61 72 	movl   $0x72616c20,0x18(%eax)
    31df:	c7 40 1c 67 65 2e 20 	movl   $0x202e6567,0x1c(%eax)
    31e6:	c7 40 20 49 6e 63 72 	movl   $0x72636e49,0x20(%eax)
    31ed:	c7 40 24 65 61 73 65 	movl   $0x65736165,0x24(%eax)
    31f4:	c7 40 28 20 53 55 42 	movl   $0x42555320,0x28(%eax)
    31fb:	c7 40 2c 4d 49 54 52 	movl   $0x5254494d,0x2c(%eax)
    3202:	c7 40 30 5f 4d 41 58 	movl   $0x58414d5f,0x30(%eax)
    3209:	c7 40 34 42 55 46 00 	movl   $0x465542,0x34(%eax)
    3210:	83 ec 0c             	sub    $0xc,%esp
    3213:	55                   	push   %ebp
    3214:	e8 fc ff ff ff       	call   3215 <submitr+0x31c>
    3219:	83 c4 10             	add    $0x10,%esp
    321c:	b8 ff ff ff ff       	mov    $0xffffffff,%eax
    3221:	e9 4a 03 00 00       	jmp    3570 <submitr+0x677>
    3226:	3c 5f                	cmp    $0x5f,%al
    3228:	75 72                	jne    329c <submitr+0x3a3>
    322a:	88 06                	mov    %al,(%esi)
    322c:	8d 76 01             	lea    0x1(%esi),%esi
    322f:	83 c3 01             	add    $0x1,%ebx
    3232:	8d 44 3d 00          	lea    0x0(%ebp,%edi,1),%eax
    3236:	39 c3                	cmp    %eax,%ebx
    3238:	74 7e                	je     32b8 <submitr+0x3bf>
    323a:	0f b6 03             	movzbl (%ebx),%eax
    323d:	8d 50 d6             	lea    -0x2a(%eax),%edx
    3240:	80 fa 0f             	cmp    $0xf,%dl
    3243:	77 e1                	ja     3226 <submitr+0x32d>
    3245:	b9 d9 ff 00 00       	mov    $0xffd9,%ecx
    324a:	0f a3 d1             	bt     %edx,%ecx
    324d:	72 db                	jb     322a <submitr+0x331>
    324f:	3c 5f                	cmp    $0x5f,%al
    3251:	74 d7                	je     322a <submitr+0x331>
    3253:	8d 50 e0             	lea    -0x20(%eax),%edx
    3256:	80 fa 5f             	cmp    $0x5f,%dl
    3259:	76 08                	jbe    3263 <submitr+0x36a>
    325b:	3c 09                	cmp    $0x9,%al
    325d:	0f 85 ff 03 00 00    	jne    3662 <submitr+0x769>
    3263:	83 ec 0c             	sub    $0xc,%esp
    3266:	0f b6 c0             	movzbl %al,%eax
    3269:	50                   	push   %eax
    326a:	68 1a 48 00 00       	push   $0x481a
    326f:	6a 08                	push   $0x8
    3271:	6a 01                	push   $0x1
    3273:	8d 44 24 34          	lea    0x34(%esp),%eax
    3277:	50                   	push   %eax
    3278:	e8 fc ff ff ff       	call   3279 <submitr+0x380>
    327d:	0f b6 44 24 38       	movzbl 0x38(%esp),%eax
    3282:	88 06                	mov    %al,(%esi)
    3284:	0f b6 44 24 39       	movzbl 0x39(%esp),%eax
    3289:	88 46 01             	mov    %al,0x1(%esi)
    328c:	0f b6 44 24 3a       	movzbl 0x3a(%esp),%eax
    3291:	88 46 02             	mov    %al,0x2(%esi)
    3294:	83 c4 20             	add    $0x20,%esp
    3297:	8d 76 03             	lea    0x3(%esi),%esi
    329a:	eb 93                	jmp    322f <submitr+0x336>
    329c:	89 c2                	mov    %eax,%edx
    329e:	83 e2 df             	and    $0xffffffdf,%edx
    32a1:	83 ea 41             	sub    $0x41,%edx
    32a4:	80 fa 19             	cmp    $0x19,%dl
    32a7:	76 81                	jbe    322a <submitr+0x331>
    32a9:	3c 20                	cmp    $0x20,%al
    32ab:	75 a6                	jne    3253 <submitr+0x35a>
    32ad:	c6 06 2b             	movb   $0x2b,(%esi)
    32b0:	8d 76 01             	lea    0x1(%esi),%esi
    32b3:	e9 77 ff ff ff       	jmp    322f <submitr+0x336>
    32b8:	8b 6c 24 0c          	mov    0xc(%esp),%ebp
    32bc:	8d 84 24 24 40 00 00 	lea    0x4024(%esp),%eax
    32c3:	50                   	push   %eax
    32c4:	ff b4 24 74 a0 00 00 	push   0xa074(%esp)
    32cb:	ff b4 24 74 a0 00 00 	push   0xa074(%esp)
    32d2:	ff b4 24 74 a0 00 00 	push   0xa074(%esp)
    32d9:	68 a8 47 00 00       	push   $0x47a8
    32de:	68 00 20 00 00       	push   $0x2000
    32e3:	6a 01                	push   $0x1
    32e5:	8d 9c 24 40 60 00 00 	lea    0x6040(%esp),%ebx
    32ec:	53                   	push   %ebx
    32ed:	e8 fc ff ff ff       	call   32ee <submitr+0x3f5>
    32f2:	83 c4 14             	add    $0x14,%esp
    32f5:	53                   	push   %ebx
    32f6:	e8 fc ff ff ff       	call   32f7 <submitr+0x3fe>
    32fb:	83 c4 10             	add    $0x10,%esp
    32fe:	89 c3                	mov    %eax,%ebx
    3300:	8d b4 24 24 60 00 00 	lea    0x6024(%esp),%esi
    3307:	bf 00 00 00 00       	mov    $0x0,%edi
    330c:	85 c0                	test   %eax,%eax
    330e:	0f 85 34 01 00 00    	jne    3448 <submitr+0x54f>
    3314:	89 ac 24 24 80 00 00 	mov    %ebp,0x8024(%esp)
    331b:	c7 84 24 28 80 00 00 	movl   $0x0,0x8028(%esp)
    3322:	00 00 00 00 
    3326:	8d 84 24 30 80 00 00 	lea    0x8030(%esp),%eax
    332d:	89 84 24 2c 80 00 00 	mov    %eax,0x802c(%esp)
    3334:	b9 00 20 00 00       	mov    $0x2000,%ecx
    3339:	8d 94 24 24 60 00 00 	lea    0x6024(%esp),%edx
    3340:	8d 84 24 24 80 00 00 	lea    0x8024(%esp),%eax
    3347:	e8 02 fb ff ff       	call   2e4e <rio_readlineb>
    334c:	85 c0                	test   %eax,%eax
    334e:	0f 8e 18 01 00 00    	jle    346c <submitr+0x573>
    3354:	83 ec 0c             	sub    $0xc,%esp
    3357:	8d 44 24 2c          	lea    0x2c(%esp),%eax
    335b:	50                   	push   %eax
    335c:	8d 84 24 30 20 00 00 	lea    0x2030(%esp),%eax
    3363:	50                   	push   %eax
    3364:	8d 84 24 38 20 00 00 	lea    0x2038(%esp),%eax
    336b:	50                   	push   %eax
    336c:	68 21 48 00 00       	push   $0x4821
    3371:	8d 84 24 40 60 00 00 	lea    0x6040(%esp),%eax
    3378:	50                   	push   %eax
    3379:	e8 fc ff ff ff       	call   337a <submitr+0x481>
    337e:	8b 84 24 40 20 00 00 	mov    0x2040(%esp),%eax
    3385:	83 c4 20             	add    $0x20,%esp
    3388:	3d c8 00 00 00       	cmp    $0xc8,%eax
    338d:	0f 85 56 01 00 00    	jne    34e9 <submitr+0x5f0>
    3393:	8d 9c 24 24 60 00 00 	lea    0x6024(%esp),%ebx
    339a:	83 ec 08             	sub    $0x8,%esp
    339d:	68 32 48 00 00       	push   $0x4832
    33a2:	53                   	push   %ebx
    33a3:	e8 fc ff ff ff       	call   33a4 <submitr+0x4ab>
    33a8:	83 c4 10             	add    $0x10,%esp
    33ab:	85 c0                	test   %eax,%eax
    33ad:	0f 84 67 01 00 00    	je     351a <submitr+0x621>
    33b3:	b9 00 20 00 00       	mov    $0x2000,%ecx
    33b8:	89 da                	mov    %ebx,%edx
    33ba:	8d 84 24 24 80 00 00 	lea    0x8024(%esp),%eax
    33c1:	e8 88 fa ff ff       	call   2e4e <rio_readlineb>
    33c6:	85 c0                	test   %eax,%eax
    33c8:	7f d0                	jg     339a <submitr+0x4a1>
    33ca:	8b 84 24 78 a0 00 00 	mov    0xa078(%esp),%eax
    33d1:	c7 00 45 72 72 6f    	movl   $0x6f727245,(%eax)
    33d7:	c7 40 04 72 3a 20 43 	movl   $0x43203a72,0x4(%eax)
    33de:	c7 40 08 6c 69 65 6e 	movl   $0x6e65696c,0x8(%eax)
    33e5:	c7 40 0c 74 20 75 6e 	movl   $0x6e752074,0xc(%eax)
    33ec:	c7 40 10 61 62 6c 65 	movl   $0x656c6261,0x10(%eax)
    33f3:	c7 40 14 20 74 6f 20 	movl   $0x206f7420,0x14(%eax)
    33fa:	c7 40 18 72 65 61 64 	movl   $0x64616572,0x18(%eax)
    3401:	c7 40 1c 20 68 65 61 	movl   $0x61656820,0x1c(%eax)
    3408:	c7 40 20 64 65 72 73 	movl   $0x73726564,0x20(%eax)
    340f:	c7 40 24 20 66 72 6f 	movl   $0x6f726620,0x24(%eax)
    3416:	c7 40 28 6d 20 73 65 	movl   $0x6573206d,0x28(%eax)
    341d:	c7 40 2c 72 76 65 72 	movl   $0x72657672,0x2c(%eax)
    3424:	c6 40 30 00          	movb   $0x0,0x30(%eax)
    3428:	83 ec 0c             	sub    $0xc,%esp
    342b:	55                   	push   %ebp
    342c:	e8 fc ff ff ff       	call   342d <submitr+0x534>
    3431:	83 c4 10             	add    $0x10,%esp
    3434:	b8 ff ff ff ff       	mov    $0xffffffff,%eax
    3439:	e9 32 01 00 00       	jmp    3570 <submitr+0x677>
    343e:	01 c6                	add    %eax,%esi
    3440:	29 c3                	sub    %eax,%ebx
    3442:	0f 84 cc fe ff ff    	je     3314 <submitr+0x41b>
    3448:	83 ec 04             	sub    $0x4,%esp
    344b:	53                   	push   %ebx
    344c:	56                   	push   %esi
    344d:	55                   	push   %ebp
    344e:	e8 fc ff ff ff       	call   344f <submitr+0x556>
    3453:	83 c4 10             	add    $0x10,%esp
    3456:	85 c0                	test   %eax,%eax
    3458:	7f e4                	jg     343e <submitr+0x545>
    345a:	e8 fc ff ff ff       	call   345b <submitr+0x562>
    345f:	83 38 04             	cmpl   $0x4,(%eax)
    3462:	0f 85 91 01 00 00    	jne    35f9 <submitr+0x700>
    3468:	89 f8                	mov    %edi,%eax
    346a:	eb d2                	jmp    343e <submitr+0x545>
    346c:	8b 84 24 78 a0 00 00 	mov    0xa078(%esp),%eax
    3473:	c7 00 45 72 72 6f    	movl   $0x6f727245,(%eax)
    3479:	c7 40 04 72 3a 20 43 	movl   $0x43203a72,0x4(%eax)
    3480:	c7 40 08 6c 69 65 6e 	movl   $0x6e65696c,0x8(%eax)
    3487:	c7 40 0c 74 20 75 6e 	movl   $0x6e752074,0xc(%eax)
    348e:	c7 40 10 61 62 6c 65 	movl   $0x656c6261,0x10(%eax)
    3495:	c7 40 14 20 74 6f 20 	movl   $0x206f7420,0x14(%eax)
    349c:	c7 40 18 72 65 61 64 	movl   $0x64616572,0x18(%eax)
    34a3:	c7 40 1c 20 66 69 72 	movl   $0x72696620,0x1c(%eax)
    34aa:	c7 40 20 73 74 20 68 	movl   $0x68207473,0x20(%eax)
    34b1:	c7 40 24 65 61 64 65 	movl   $0x65646165,0x24(%eax)
    34b8:	c7 40 28 72 20 66 72 	movl   $0x72662072,0x28(%eax)
    34bf:	c7 40 2c 6f 6d 20 73 	movl   $0x73206d6f,0x2c(%eax)
    34c6:	c7 40 30 65 72 76 65 	movl   $0x65767265,0x30(%eax)
    34cd:	66 c7 40 34 72 00    	movw   $0x72,0x34(%eax)
    34d3:	83 ec 0c             	sub    $0xc,%esp
    34d6:	55                   	push   %ebp
    34d7:	e8 fc ff ff ff       	call   34d8 <submitr+0x5df>
    34dc:	83 c4 10             	add    $0x10,%esp
    34df:	b8 ff ff ff ff       	mov    $0xffffffff,%eax
    34e4:	e9 87 00 00 00       	jmp    3570 <submitr+0x677>
    34e9:	83 ec 08             	sub    $0x8,%esp
    34ec:	8d 54 24 28          	lea    0x28(%esp),%edx
    34f0:	52                   	push   %edx
    34f1:	50                   	push   %eax
    34f2:	68 34 47 00 00       	push   $0x4734
    34f7:	6a ff                	push   $0xffffffff
    34f9:	6a 01                	push   $0x1
    34fb:	ff b4 24 94 a0 00 00 	push   0xa094(%esp)
    3502:	e8 fc ff ff ff       	call   3503 <submitr+0x60a>
    3507:	83 c4 14             	add    $0x14,%esp
    350a:	55                   	push   %ebp
    350b:	e8 fc ff ff ff       	call   350c <submitr+0x613>
    3510:	83 c4 10             	add    $0x10,%esp
    3513:	b8 ff ff ff ff       	mov    $0xffffffff,%eax
    3518:	eb 56                	jmp    3570 <submitr+0x677>
    351a:	b9 00 20 00 00       	mov    $0x2000,%ecx
    351f:	8d 94 24 24 60 00 00 	lea    0x6024(%esp),%edx
    3526:	8d 84 24 24 80 00 00 	lea    0x8024(%esp),%eax
    352d:	e8 1c f9 ff ff       	call   2e4e <rio_readlineb>
    3532:	85 c0                	test   %eax,%eax
    3534:	7e 45                	jle    357b <submitr+0x682>
    3536:	83 ec 08             	sub    $0x8,%esp
    3539:	8d 84 24 2c 60 00 00 	lea    0x602c(%esp),%eax
    3540:	50                   	push   %eax
    3541:	ff b4 24 84 a0 00 00 	push   0xa084(%esp)
    3548:	e8 fc ff ff ff       	call   3549 <submitr+0x650>
    354d:	89 2c 24             	mov    %ebp,(%esp)
    3550:	e8 fc ff ff ff       	call   3551 <submitr+0x658>
    3555:	83 c4 08             	add    $0x8,%esp
    3558:	68 35 48 00 00       	push   $0x4835
    355d:	ff b4 24 84 a0 00 00 	push   0xa084(%esp)
    3564:	e8 fc ff ff ff       	call   3565 <submitr+0x66c>
    3569:	83 c4 10             	add    $0x10,%esp
    356c:	f7 d8                	neg    %eax
    356e:	19 c0                	sbb    %eax,%eax
    3570:	81 c4 4c a0 00 00    	add    $0xa04c,%esp
    3576:	5b                   	pop    %ebx
    3577:	5e                   	pop    %esi
    3578:	5f                   	pop    %edi
    3579:	5d                   	pop    %ebp
    357a:	c3                   	ret    
    357b:	8b 84 24 78 a0 00 00 	mov    0xa078(%esp),%eax
    3582:	c7 00 45 72 72 6f    	movl   $0x6f727245,(%eax)
    3588:	c7 40 04 72 3a 20 43 	movl   $0x43203a72,0x4(%eax)
    358f:	c7 40 08 6c 69 65 6e 	movl   $0x6e65696c,0x8(%eax)
    3596:	c7 40 0c 74 20 75 6e 	movl   $0x6e752074,0xc(%eax)
    359d:	c7 40 10 61 62 6c 65 	movl   $0x656c6261,0x10(%eax)
    35a4:	c7 40 14 20 74 6f 20 	movl   $0x206f7420,0x14(%eax)
    35ab:	c7 40 18 72 65 61 64 	movl   $0x64616572,0x18(%eax)
    35b2:	c7 40 1c 20 73 74 61 	movl   $0x61747320,0x1c(%eax)
    35b9:	c7 40 20 74 75 73 20 	movl   $0x20737574,0x20(%eax)
    35c0:	c7 40 24 6d 65 73 73 	movl   $0x7373656d,0x24(%eax)
    35c7:	c7 40 28 61 67 65 20 	movl   $0x20656761,0x28(%eax)
    35ce:	c7 40 2c 66 72 6f 6d 	movl   $0x6d6f7266,0x2c(%eax)
    35d5:	c7 40 30 20 73 65 72 	movl   $0x72657320,0x30(%eax)
    35dc:	c7 40 34 76 65 72 00 	movl   $0x726576,0x34(%eax)
    35e3:	83 ec 0c             	sub    $0xc,%esp
    35e6:	55                   	push   %ebp
    35e7:	e8 fc ff ff ff       	call   35e8 <submitr+0x6ef>
    35ec:	83 c4 10             	add    $0x10,%esp
    35ef:	b8 ff ff ff ff       	mov    $0xffffffff,%eax
    35f4:	e9 77 ff ff ff       	jmp    3570 <submitr+0x677>
    35f9:	8b 84 24 78 a0 00 00 	mov    0xa078(%esp),%eax
    3600:	c7 00 45 72 72 6f    	movl   $0x6f727245,(%eax)
    3606:	c7 40 04 72 3a 20 43 	movl   $0x43203a72,0x4(%eax)
    360d:	c7 40 08 6c 69 65 6e 	movl   $0x6e65696c,0x8(%eax)
    3614:	c7 40 0c 74 20 75 6e 	movl   $0x6e752074,0xc(%eax)
    361b:	c7 40 10 61 62 6c 65 	movl   $0x656c6261,0x10(%eax)
    3622:	c7 40 14 20 74 6f 20 	movl   $0x206f7420,0x14(%eax)
    3629:	c7 40 18 77 72 69 74 	movl   $0x74697277,0x18(%eax)
    3630:	c7 40 1c 65 20 74 6f 	movl   $0x6f742065,0x1c(%eax)
    3637:	c7 40 20 20 74 68 65 	movl   $0x65687420,0x20(%eax)
    363e:	c7 40 24 20 73 65 72 	movl   $0x72657320,0x24(%eax)
    3645:	c7 40 28 76 65 72 00 	movl   $0x726576,0x28(%eax)
    364c:	83 ec 0c             	sub    $0xc,%esp
    364f:	55                   	push   %ebp
    3650:	e8 fc ff ff ff       	call   3651 <submitr+0x758>
    3655:	83 c4 10             	add    $0x10,%esp
    3658:	b8 ff ff ff ff       	mov    $0xffffffff,%eax
    365d:	e9 0e ff ff ff       	jmp    3570 <submitr+0x677>
    3662:	8b 6c 24 0c          	mov    0xc(%esp),%ebp
    3666:	a1 64 47 00 00       	mov    0x4764,%eax
    366b:	8b 8c 24 78 a0 00 00 	mov    0xa078(%esp),%ecx
    3672:	89 01                	mov    %eax,(%ecx)
    3674:	a1 a3 47 00 00       	mov    0x47a3,%eax
    3679:	8b 8c 24 78 a0 00 00 	mov    0xa078(%esp),%ecx
    3680:	89 41 3f             	mov    %eax,0x3f(%ecx)
    3683:	8b 84 24 78 a0 00 00 	mov    0xa078(%esp),%eax
    368a:	8d 78 04             	lea    0x4(%eax),%edi
    368d:	83 e7 fc             	and    $0xfffffffc,%edi
    3690:	29 f8                	sub    %edi,%eax
    3692:	be 64 47 00 00       	mov    $0x4764,%esi
    3697:	29 c6                	sub    %eax,%esi
    3699:	83 c0 43             	add    $0x43,%eax
    369c:	c1 e8 02             	shr    $0x2,%eax
    369f:	89 c1                	mov    %eax,%ecx
    36a1:	f3 a5                	rep movsl %ds:(%esi),%es:(%edi)
    36a3:	83 ec 0c             	sub    $0xc,%esp
    36a6:	55                   	push   %ebp
    36a7:	e8 fc ff ff ff       	call   36a8 <submitr+0x7af>
    36ac:	83 c4 10             	add    $0x10,%esp
    36af:	b8 ff ff ff ff       	mov    $0xffffffff,%eax
    36b4:	e9 b7 fe ff ff       	jmp    3570 <submitr+0x677>

000036b9 <init_timeout>:
    36b9:	53                   	push   %ebx
    36ba:	83 ec 08             	sub    $0x8,%esp
    36bd:	8b 5c 24 10          	mov    0x10(%esp),%ebx
    36c1:	85 db                	test   %ebx,%ebx
    36c3:	75 05                	jne    36ca <init_timeout+0x11>
    36c5:	83 c4 08             	add    $0x8,%esp
    36c8:	5b                   	pop    %ebx
    36c9:	c3                   	ret    
    36ca:	83 ec 08             	sub    $0x8,%esp
    36cd:	68 29 2e 00 00       	push   $0x2e29
    36d2:	6a 0e                	push   $0xe
    36d4:	e8 fc ff ff ff       	call   36d5 <init_timeout+0x1c>
    36d9:	85 db                	test   %ebx,%ebx
    36db:	b8 00 00 00 00       	mov    $0x0,%eax
    36e0:	0f 48 d8             	cmovs  %eax,%ebx
    36e3:	89 1c 24             	mov    %ebx,(%esp)
    36e6:	e8 fc ff ff ff       	call   36e7 <init_timeout+0x2e>
    36eb:	83 c4 10             	add    $0x10,%esp
    36ee:	eb d5                	jmp    36c5 <init_timeout+0xc>

000036f0 <init_driver>:
    36f0:	57                   	push   %edi
    36f1:	56                   	push   %esi
    36f2:	53                   	push   %ebx
    36f3:	83 ec 18             	sub    $0x18,%esp
    36f6:	8b 74 24 28          	mov    0x28(%esp),%esi
    36fa:	6a 01                	push   $0x1
    36fc:	6a 0d                	push   $0xd
    36fe:	e8 fc ff ff ff       	call   36ff <init_driver+0xf>
    3703:	83 c4 08             	add    $0x8,%esp
    3706:	6a 01                	push   $0x1
    3708:	6a 1d                	push   $0x1d
    370a:	e8 fc ff ff ff       	call   370b <init_driver+0x1b>
    370f:	83 c4 08             	add    $0x8,%esp
    3712:	6a 01                	push   $0x1
    3714:	6a 1d                	push   $0x1d
    3716:	e8 fc ff ff ff       	call   3717 <init_driver+0x27>
    371b:	83 c4 0c             	add    $0xc,%esp
    371e:	6a 00                	push   $0x0
    3720:	6a 01                	push   $0x1
    3722:	6a 02                	push   $0x2
    3724:	e8 fc ff ff ff       	call   3725 <init_driver+0x35>
    3729:	83 c4 10             	add    $0x10,%esp
    372c:	85 c0                	test   %eax,%eax
    372e:	0f 88 93 00 00 00    	js     37c7 <init_driver+0xd7>
    3734:	89 c3                	mov    %eax,%ebx
    3736:	83 ec 0c             	sub    $0xc,%esp
    3739:	68 fc 46 00 00       	push   $0x46fc
    373e:	e8 fc ff ff ff       	call   373f <init_driver+0x4f>
    3743:	83 c4 10             	add    $0x10,%esp
    3746:	85 c0                	test   %eax,%eax
    3748:	0f 84 c4 00 00 00    	je     3812 <init_driver+0x122>
    374e:	89 e7                	mov    %esp,%edi
    3750:	c7 04 24 00 00 00 00 	movl   $0x0,(%esp)
    3757:	c7 44 24 04 00 00 00 	movl   $0x0,0x4(%esp)
    375e:	00 
    375f:	c7 44 24 08 00 00 00 	movl   $0x0,0x8(%esp)
    3766:	00 
    3767:	c7 44 24 0c 00 00 00 	movl   $0x0,0xc(%esp)
    376e:	00 
    376f:	66 c7 04 24 02 00    	movw   $0x2,(%esp)
    3775:	6a 0c                	push   $0xc
    3777:	ff 70 0c             	push   0xc(%eax)
    377a:	8b 40 10             	mov    0x10(%eax),%eax
    377d:	ff 30                	push   (%eax)
    377f:	8d 44 24 10          	lea    0x10(%esp),%eax
    3783:	50                   	push   %eax
    3784:	e8 fc ff ff ff       	call   3785 <init_driver+0x95>
    3789:	66 c7 44 24 12 3b 6c 	movw   $0x6c3b,0x12(%esp)
    3790:	83 c4 0c             	add    $0xc,%esp
    3793:	6a 10                	push   $0x10
    3795:	57                   	push   %edi
    3796:	53                   	push   %ebx
    3797:	e8 fc ff ff ff       	call   3798 <init_driver+0xa8>
    379c:	89 fc                	mov    %edi,%esp
    379e:	85 c0                	test   %eax,%eax
    37a0:	0f 88 d8 00 00 00    	js     387e <init_driver+0x18e>
    37a6:	83 ec 0c             	sub    $0xc,%esp
    37a9:	53                   	push   %ebx
    37aa:	e8 fc ff ff ff       	call   37ab <init_driver+0xbb>
    37af:	66 c7 06 4f 4b       	movw   $0x4b4f,(%esi)
    37b4:	c6 46 02 00          	movb   $0x0,0x2(%esi)
    37b8:	83 c4 10             	add    $0x10,%esp
    37bb:	b8 00 00 00 00       	mov    $0x0,%eax
    37c0:	83 c4 10             	add    $0x10,%esp
    37c3:	5b                   	pop    %ebx
    37c4:	5e                   	pop    %esi
    37c5:	5f                   	pop    %edi
    37c6:	c3                   	ret    
    37c7:	c7 06 45 72 72 6f    	movl   $0x6f727245,(%esi)
    37cd:	c7 46 04 72 3a 20 43 	movl   $0x43203a72,0x4(%esi)
    37d4:	c7 46 08 6c 69 65 6e 	movl   $0x6e65696c,0x8(%esi)
    37db:	c7 46 0c 74 20 75 6e 	movl   $0x6e752074,0xc(%esi)
    37e2:	c7 46 10 61 62 6c 65 	movl   $0x656c6261,0x10(%esi)
    37e9:	c7 46 14 20 74 6f 20 	movl   $0x206f7420,0x14(%esi)
    37f0:	c7 46 18 63 72 65 61 	movl   $0x61657263,0x18(%esi)
    37f7:	c7 46 1c 74 65 20 73 	movl   $0x73206574,0x1c(%esi)
    37fe:	c7 46 20 6f 63 6b 65 	movl   $0x656b636f,0x20(%esi)
    3805:	66 c7 46 24 74 00    	movw   $0x74,0x24(%esi)
    380b:	b8 ff ff ff ff       	mov    $0xffffffff,%eax
    3810:	eb ae                	jmp    37c0 <init_driver+0xd0>
    3812:	c7 06 45 72 72 6f    	movl   $0x6f727245,(%esi)
    3818:	c7 46 04 72 3a 20 44 	movl   $0x44203a72,0x4(%esi)
    381f:	c7 46 08 4e 53 20 69 	movl   $0x6920534e,0x8(%esi)
    3826:	c7 46 0c 73 20 75 6e 	movl   $0x6e752073,0xc(%esi)
    382d:	c7 46 10 61 62 6c 65 	movl   $0x656c6261,0x10(%esi)
    3834:	c7 46 14 20 74 6f 20 	movl   $0x206f7420,0x14(%esi)
    383b:	c7 46 18 72 65 73 6f 	movl   $0x6f736572,0x18(%esi)
    3842:	c7 46 1c 6c 76 65 20 	movl   $0x2065766c,0x1c(%esi)
    3849:	c7 46 20 73 65 72 76 	movl   $0x76726573,0x20(%esi)
    3850:	c7 46 24 65 72 20 61 	movl   $0x61207265,0x24(%esi)
    3857:	c7 46 28 64 64 72 65 	movl   $0x65726464,0x28(%esi)
    385e:	66 c7 46 2c 73 73    	movw   $0x7373,0x2c(%esi)
    3864:	c6 46 2e 00          	movb   $0x0,0x2e(%esi)
    3868:	83 ec 0c             	sub    $0xc,%esp
    386b:	53                   	push   %ebx
    386c:	e8 fc ff ff ff       	call   386d <init_driver+0x17d>
    3871:	83 c4 10             	add    $0x10,%esp
    3874:	b8 ff ff ff ff       	mov    $0xffffffff,%eax
    3879:	e9 42 ff ff ff       	jmp    37c0 <init_driver+0xd0>
    387e:	83 ec 0c             	sub    $0xc,%esp
    3881:	68 fc 46 00 00       	push   $0x46fc
    3886:	68 f4 47 00 00       	push   $0x47f4
    388b:	6a ff                	push   $0xffffffff
    388d:	6a 01                	push   $0x1
    388f:	56                   	push   %esi
    3890:	e8 fc ff ff ff       	call   3891 <init_driver+0x1a1>
    3895:	83 c4 14             	add    $0x14,%esp
    3898:	53                   	push   %ebx
    3899:	e8 fc ff ff ff       	call   389a <init_driver+0x1aa>
    389e:	89 fc                	mov    %edi,%esp
    38a0:	b8 ff ff ff ff       	mov    $0xffffffff,%eax
    38a5:	e9 16 ff ff ff       	jmp    37c0 <init_driver+0xd0>

000038aa <driver_post>:
    38aa:	53                   	push   %ebx
    38ab:	83 ec 08             	sub    $0x8,%esp
    38ae:	8b 54 24 10          	mov    0x10(%esp),%edx
    38b2:	8b 44 24 18          	mov    0x18(%esp),%eax
    38b6:	8b 5c 24 1c          	mov    0x1c(%esp),%ebx
    38ba:	85 c0                	test   %eax,%eax
    38bc:	75 17                	jne    38d5 <driver_post+0x2b>
    38be:	85 d2                	test   %edx,%edx
    38c0:	74 05                	je     38c7 <driver_post+0x1d>
    38c2:	80 3a 00             	cmpb   $0x0,(%edx)
    38c5:	75 34                	jne    38fb <driver_post+0x51>
    38c7:	66 c7 03 4f 4b       	movw   $0x4b4f,(%ebx)
    38cc:	c6 43 02 00          	movb   $0x0,0x2(%ebx)
    38d0:	83 c4 08             	add    $0x8,%esp
    38d3:	5b                   	pop    %ebx
    38d4:	c3                   	ret    
    38d5:	83 ec 04             	sub    $0x4,%esp
    38d8:	ff 74 24 18          	push   0x18(%esp)
    38dc:	68 38 48 00 00       	push   $0x4838
    38e1:	6a 01                	push   $0x1
    38e3:	e8 fc ff ff ff       	call   38e4 <driver_post+0x3a>
    38e8:	66 c7 03 4f 4b       	movw   $0x4b4f,(%ebx)
    38ed:	c6 43 02 00          	movb   $0x0,0x2(%ebx)
    38f1:	83 c4 10             	add    $0x10,%esp
    38f4:	b8 00 00 00 00       	mov    $0x0,%eax
    38f9:	eb d5                	jmp    38d0 <driver_post+0x26>
    38fb:	83 ec 04             	sub    $0x4,%esp
    38fe:	53                   	push   %ebx
    38ff:	ff 74 24 1c          	push   0x1c(%esp)
    3903:	68 4f 48 00 00       	push   $0x484f
    3908:	52                   	push   %edx
    3909:	68 61 48 00 00       	push   $0x4861
    390e:	68 6c 3b 00 00       	push   $0x3b6c
    3913:	68 fc 46 00 00       	push   $0x46fc
    3918:	e8 dc f5 ff ff       	call   2ef9 <submitr>
    391d:	83 c4 20             	add    $0x20,%esp
    3920:	eb ae                	jmp    38d0 <driver_post+0x26>

Disassembly of section .fini:

00003924 <_fini>:
    3924:	f3 0f 1e fb          	endbr32 
    3928:	53                   	push   %ebx
    3929:	83 ec 08             	sub    $0x8,%esp
    392c:	e8 2f e9 ff ff       	call   2260 <__x86.get_pc_thunk.bx>
    3931:	81 c3 37 36 00 00    	add    $0x3637,%ebx
    3937:	83 c4 08             	add    $0x8,%esp
    393a:	5b                   	pop    %ebx
    393b:	c3                   	ret    
